
libfunc.so:     file format elf64-x86-64


Disassembly of section .init:

0000000000002bb8 <_init>:
    2bb8:	48 83 ec 08          	sub    $0x8,%rsp
    2bbc:	48 8b 05 15 a4 20 00 	mov    0x20a415(%rip),%rax        # 20cfd8 <__gmon_start__>
    2bc3:	48 85 c0             	test   %rax,%rax
    2bc6:	74 05                	je     2bcd <_init+0x15>
    2bc8:	e8 83 00 00 00       	callq  2c50 <__gmon_start__@plt>
    2bcd:	48 83 c4 08          	add    $0x8,%rsp
    2bd1:	c3                   	retq   

Disassembly of section .plt:

0000000000002be0 <.plt>:
    2be0:	ff 35 22 a4 20 00    	pushq  0x20a422(%rip)        # 20d008 <_GLOBAL_OFFSET_TABLE_+0x8>
    2be6:	ff 25 24 a4 20 00    	jmpq   *0x20a424(%rip)        # 20d010 <_GLOBAL_OFFSET_TABLE_+0x10>
    2bec:	0f 1f 40 00          	nopl   0x0(%rax)

0000000000002bf0 <_Z16phLogFuncMessageP11phLogStruct11phLogType_tPKcz@plt>:
    2bf0:	ff 25 22 a4 20 00    	jmpq   *0x20a422(%rip)        # 20d018 <_Z16phLogFuncMessageP11phLogStruct11phLogType_tPKcz>
    2bf6:	68 00 00 00 00       	pushq  $0x0
    2bfb:	e9 e0 ff ff ff       	jmpq   2be0 <.plt>

0000000000002c00 <_Z16privateStripDoneP12phFuncStructi@plt>:
    2c00:	ff 25 1a a4 20 00    	jmpq   *0x20a41a(%rip)        # 20d020 <_Z16privateStripDoneP12phFuncStructi@@Base+0x205e96>
    2c06:	68 01 00 00 00       	pushq  $0x1
    2c0b:	e9 d0 ff ff ff       	jmpq   2be0 <.plt>

0000000000002c10 <memset@plt>:
    2c10:	ff 25 12 a4 20 00    	jmpq   *0x20a412(%rip)        # 20d028 <memset@GLIBC_2.2.5>
    2c16:	68 02 00 00 00       	pushq  $0x2
    2c1b:	e9 c0 ff ff ff       	jmpq   2be0 <.plt>

0000000000002c20 <_Z15phConfConfIfDefP16phConfConfStructPKc@plt>:
    2c20:	ff 25 0a a4 20 00    	jmpq   *0x20a40a(%rip)        # 20d030 <_Z15phConfConfIfDefP16phConfConfStructPKc>
    2c26:	68 03 00 00 00       	pushq  $0x3
    2c2b:	e9 b0 ff ff ff       	jmpq   2be0 <.plt>

0000000000002c30 <vsscanf@plt>:
    2c30:	ff 25 02 a4 20 00    	jmpq   *0x20a402(%rip)        # 20d038 <vsscanf@GLIBC_2.2.5>
    2c36:	68 04 00 00 00       	pushq  $0x4
    2c3b:	e9 a0 ff ff ff       	jmpq   2be0 <.plt>

0000000000002c40 <_Z16phConfConfStringP16phConfConfStructPKciPiPS2_@plt>:
    2c40:	ff 25 fa a3 20 00    	jmpq   *0x20a3fa(%rip)        # 20d040 <_Z16phConfConfStringP16phConfConfStructPKciPiPS2_>
    2c46:	68 05 00 00 00       	pushq  $0x5
    2c4b:	e9 90 ff ff ff       	jmpq   2be0 <.plt>

0000000000002c50 <__gmon_start__@plt>:
    2c50:	ff 25 f2 a3 20 00    	jmpq   *0x20a3f2(%rip)        # 20d048 <__gmon_start__>
    2c56:	68 06 00 00 00       	pushq  $0x6
    2c5b:	e9 80 ff ff ff       	jmpq   2be0 <.plt>

0000000000002c60 <select@plt>:
    2c60:	ff 25 ea a3 20 00    	jmpq   *0x20a3ea(%rip)        # 20d050 <select@GLIBC_2.2.5>
    2c66:	68 07 00 00 00       	pushq  $0x7
    2c6b:	e9 70 ff ff ff       	jmpq   2be0 <.plt>

0000000000002c70 <strcasecmp@plt>:
    2c70:	ff 25 e2 a3 20 00    	jmpq   *0x20a3e2(%rip)        # 20d058 <strcasecmp@GLIBC_2.2.5>
    2c76:	68 08 00 00 00       	pushq  $0x8
    2c7b:	e9 60 ff ff ff       	jmpq   2be0 <.plt>

0000000000002c80 <_Z14privateLotDoneP12phFuncStructi@plt>:
    2c80:	ff 25 da a3 20 00    	jmpq   *0x20a3da(%rip)        # 20d060 <_Z14privateLotDoneP12phFuncStructi@@Base+0x205940>
    2c86:	68 09 00 00 00       	pushq  $0x9
    2c8b:	e9 50 ff ff ff       	jmpq   2be0 <.plt>

0000000000002c90 <strncmp@plt>:
    2c90:	ff 25 d2 a3 20 00    	jmpq   *0x20a3d2(%rip)        # 20d068 <strncmp@GLIBC_2.2.5>
    2c96:	68 0a 00 00 00       	pushq  $0xa
    2c9b:	e9 40 ff ff ff       	jmpq   2be0 <.plt>

0000000000002ca0 <malloc@plt>:
    2ca0:	ff 25 ca a3 20 00    	jmpq   *0x20a3ca(%rip)        # 20d070 <malloc@GLIBC_2.2.5>
    2ca6:	68 0b 00 00 00       	pushq  $0xb
    2cab:	e9 30 ff ff ff       	jmpq   2be0 <.plt>

0000000000002cb0 <isgraph@plt>:
    2cb0:	ff 25 c2 a3 20 00    	jmpq   *0x20a3c2(%rip)        # 20d078 <isgraph@GLIBC_2.2.5>
    2cb6:	68 0c 00 00 00       	pushq  $0xc
    2cbb:	e9 20 ff ff ff       	jmpq   2be0 <.plt>

0000000000002cc0 <_Z17phComRs232ReceiveP11phComStructPPKcPil@plt>:
    2cc0:	ff 25 ba a3 20 00    	jmpq   *0x20a3ba(%rip)        # 20d080 <_Z17phComRs232ReceiveP11phComStructPPKcPil>
    2cc6:	68 0d 00 00 00       	pushq  $0xd
    2ccb:	e9 10 ff ff ff       	jmpq   2be0 <.plt>

0000000000002cd0 <_Z16privateSetStatusP12phFuncStructPKcS2_@plt>:
    2cd0:	ff 25 b2 a3 20 00    	jmpq   *0x20a3b2(%rip)        # 20d088 <_Z16privateSetStatusP12phFuncStructPKcS2_@@Base+0x205927>
    2cd6:	68 0e 00 00 00       	pushq  $0xe
    2cdb:	e9 00 ff ff ff       	jmpq   2be0 <.plt>

0000000000002ce0 <_Z14phComGpibClearP11phComStruct@plt>:
    2ce0:	ff 25 aa a3 20 00    	jmpq   *0x20a3aa(%rip)        # 20d090 <_Z14phComGpibClearP11phComStruct>
    2ce6:	68 0f 00 00 00       	pushq  $0xf
    2ceb:	e9 f0 fe ff ff       	jmpq   2be0 <.plt>

0000000000002cf0 <_Z16phConfConfNumberP16phConfConfStructPKciPiPd@plt>:
    2cf0:	ff 25 a2 a3 20 00    	jmpq   *0x20a3a2(%rip)        # 20d098 <_Z16phConfConfNumberP16phConfConfStructPKciPiPd>
    2cf6:	68 10 00 00 00       	pushq  $0x10
    2cfb:	e9 e0 fe ff ff       	jmpq   2be0 <.plt>

0000000000002d00 <_Z16phFuncTaMarkStepP12phFuncStruct@plt>:
    2d00:	ff 25 9a a3 20 00    	jmpq   *0x20a39a(%rip)        # 20d0a0 <_Z16phFuncTaMarkStepP12phFuncStruct@@Base+0x205098>
    2d06:	68 11 00 00 00       	pushq  $0x11
    2d0b:	e9 d0 fe ff ff       	jmpq   2be0 <.plt>

0000000000002d10 <free@plt>:
    2d10:	ff 25 92 a3 20 00    	jmpq   *0x20a392(%rip)        # 20d0a8 <free@GLIBC_2.2.5>
    2d16:	68 12 00 00 00       	pushq  $0x12
    2d1b:	e9 c0 fe ff ff       	jmpq   2be0 <.plt>

0000000000002d20 <strlen@plt>:
    2d20:	ff 25 8a a3 20 00    	jmpq   *0x20a38a(%rip)        # 20d0b0 <strlen@GLIBC_2.2.5>
    2d26:	68 13 00 00 00       	pushq  $0x13
    2d2b:	e9 b0 fe ff ff       	jmpq   2be0 <.plt>

0000000000002d30 <_Z13phComGpibSendP11phComStructPcil@plt>:
    2d30:	ff 25 82 a3 20 00    	jmpq   *0x20a382(%rip)        # 20d0b8 <_Z13phComGpibSendP11phComStructPcil>
    2d36:	68 14 00 00 00       	pushq  $0x14
    2d3b:	e9 a0 fe ff ff       	jmpq   2be0 <.plt>

0000000000002d40 <vsprintf@plt>:
    2d40:	ff 25 7a a3 20 00    	jmpq   *0x20a37a(%rip)        # 20d0c0 <vsprintf@GLIBC_2.2.5>
    2d46:	68 15 00 00 00       	pushq  $0x15
    2d4b:	e9 90 fe ff ff       	jmpq   2be0 <.plt>

0000000000002d50 <_Z16phComGpibReceiveP11phComStructPPKcPil@plt>:
    2d50:	ff 25 72 a3 20 00    	jmpq   *0x20a372(%rip)        # 20d0c8 <_Z16phComGpibReceiveP11phComStructPPKcPil>
    2d56:	68 16 00 00 00       	pushq  $0x16
    2d5b:	e9 80 fe ff ff       	jmpq   2be0 <.plt>

0000000000002d60 <_Z11privateInitP12phFuncStruct@plt>:
    2d60:	ff 25 6a a3 20 00    	jmpq   *0x20a36a(%rip)        # 20d0d0 <_Z11privateInitP12phFuncStruct@@Base+0x206167>
    2d66:	68 17 00 00 00       	pushq  $0x17
    2d6b:	e9 70 fe ff ff       	jmpq   2be0 <.plt>

0000000000002d70 <_Z18privateReconfigureP12phFuncStruct@plt>:
    2d70:	ff 25 62 a3 20 00    	jmpq   *0x20a362(%rip)        # 20d0d8 <_Z18privateReconfigureP12phFuncStruct@@Base+0x206036>
    2d76:	68 18 00 00 00       	pushq  $0x18
    2d7b:	e9 60 fe ff ff       	jmpq   2be0 <.plt>

0000000000002d80 <__cxa_finalize@plt>:
    2d80:	ff 25 5a a3 20 00    	jmpq   *0x20a35a(%rip)        # 20d0e0 <__cxa_finalize@GLIBC_2.2.5>
    2d86:	68 19 00 00 00       	pushq  $0x19
    2d8b:	e9 50 fe ff ff       	jmpq   2be0 <.plt>

0000000000002d90 <sprintf@plt>:
    2d90:	ff 25 52 a3 20 00    	jmpq   *0x20a352(%rip)        # 20d0e8 <sprintf@GLIBC_2.2.5>
    2d96:	68 1a 00 00 00       	pushq  $0x1a
    2d9b:	e9 40 fe ff ff       	jmpq   2be0 <.plt>

0000000000002da0 <_Z15privateLotStartP12phFuncStructi@plt>:
    2da0:	ff 25 4a a3 20 00    	jmpq   *0x20a34a(%rip)        # 20d0f0 <_Z15privateLotStartP12phFuncStructi@@Base+0x205a48>
    2da6:	68 1b 00 00 00       	pushq  $0x1b
    2dab:	e9 30 fe ff ff       	jmpq   2be0 <.plt>

0000000000002db0 <sleep@plt>:
    2db0:	ff 25 42 a3 20 00    	jmpq   *0x20a342(%rip)        # 20d0f8 <sleep@GLIBC_2.2.5>
    2db6:	68 1c 00 00 00       	pushq  $0x1c
    2dbb:	e9 20 fe ff ff       	jmpq   2be0 <.plt>

0000000000002dc0 <_Z14phComRs232SendP11phComStructPcil@plt>:
    2dc0:	ff 25 3a a3 20 00    	jmpq   *0x20a33a(%rip)        # 20d100 <_Z14phComRs232SendP11phComStructPcil>
    2dc6:	68 1d 00 00 00       	pushq  $0x1d
    2dcb:	e9 10 fe ff ff       	jmpq   2be0 <.plt>

0000000000002dd0 <_Z21phFuncGpibReconfigureP12phFuncStruct@plt>:
    2dd0:	ff 25 32 a3 20 00    	jmpq   *0x20a332(%rip)        # 20d108 <_Z21phFuncGpibReconfigureP12phFuncStruct@@Base+0x20a009>
    2dd6:	68 1e 00 00 00       	pushq  $0x1e
    2ddb:	e9 00 fe ff ff       	jmpq   2be0 <.plt>

0000000000002de0 <strstr@plt>:
    2de0:	ff 25 2a a3 20 00    	jmpq   *0x20a32a(%rip)        # 20d110 <strstr@GLIBC_2.2.5>
    2de6:	68 1f 00 00 00       	pushq  $0x1f
    2deb:	e9 f0 fd ff ff       	jmpq   2be0 <.plt>

0000000000002df0 <_Z17privateStripStartP12phFuncStructi@plt>:
    2df0:	ff 25 22 a3 20 00    	jmpq   *0x20a322(%rip)        # 20d118 <_Z17privateStripStartP12phFuncStructi@@Base+0x206010>
    2df6:	68 20 00 00 00       	pushq  $0x20
    2dfb:	e9 e0 fd ff ff       	jmpq   2be0 <.plt>

0000000000002e00 <_Z30phTrimLeadingTrailingDelimiterPcPKc@plt>:
    2e00:	ff 25 1a a3 20 00    	jmpq   *0x20a31a(%rip)        # 20d120 <_Z30phTrimLeadingTrailingDelimiterPcPKc>
    2e06:	68 21 00 00 00       	pushq  $0x21
    2e0b:	e9 d0 fd ff ff       	jmpq   2be0 <.plt>

0000000000002e10 <_Z20phEstateASetSiteInfoP14phEstateStructP19phEstateSiteUsage_ti@plt>:
    2e10:	ff 25 12 a3 20 00    	jmpq   *0x20a312(%rip)        # 20d128 <_Z20phEstateASetSiteInfoP14phEstateStructP19phEstateSiteUsage_ti>
    2e16:	68 22 00 00 00       	pushq  $0x22
    2e1b:	e9 c0 fd ff ff       	jmpq   2be0 <.plt>

0000000000002e20 <strcat@plt>:
    2e20:	ff 25 0a a3 20 00    	jmpq   *0x20a30a(%rip)        # 20d130 <strcat@GLIBC_2.2.5>
    2e26:	68 23 00 00 00       	pushq  $0x23
    2e2b:	e9 b0 fd ff ff       	jmpq   2be0 <.plt>

0000000000002e30 <_Z13phFuncTaStartP12phFuncStruct@plt>:
    2e30:	ff 25 02 a3 20 00    	jmpq   *0x20a302(%rip)        # 20d138 <_Z13phFuncTaStartP12phFuncStruct@@Base+0x2053c0>
    2e36:	68 24 00 00 00       	pushq  $0x24
    2e3b:	e9 a0 fd ff ff       	jmpq   2be0 <.plt>

0000000000002e40 <strtol@plt>:
    2e40:	ff 25 fa a2 20 00    	jmpq   *0x20a2fa(%rip)        # 20d140 <strtol@GLIBC_2.2.5>
    2e46:	68 25 00 00 00       	pushq  $0x25
    2e4b:	e9 90 fd ff ff       	jmpq   2be0 <.plt>

0000000000002e50 <atoi@plt>:
    2e50:	ff 25 f2 a2 20 00    	jmpq   *0x20a2f2(%rip)        # 20d148 <atoi@GLIBC_2.2.5>
    2e56:	68 26 00 00 00       	pushq  $0x26
    2e5b:	e9 80 fd ff ff       	jmpq   2be0 <.plt>

0000000000002e60 <_Z16privateGetStatusP12phFuncStructPKcS2_PPc@plt>:
    2e60:	ff 25 ea a2 20 00    	jmpq   *0x20a2ea(%rip)        # 20d150 <_Z16privateGetStatusP12phFuncStructPKcS2_PPc@@Base+0x205921>
    2e66:	68 27 00 00 00       	pushq  $0x27
    2e6b:	e9 70 fd ff ff       	jmpq   2be0 <.plt>

0000000000002e70 <_Z14privateReprobeP12phFuncStruct@plt>:
    2e70:	ff 25 e2 a2 20 00    	jmpq   *0x20a2e2(%rip)        # 20d158 <_Z14privateReprobeP12phFuncStruct@@Base+0x205b2e>
    2e76:	68 28 00 00 00       	pushq  $0x28
    2e7b:	e9 60 fd ff ff       	jmpq   2be0 <.plt>

0000000000002e80 <_Z15privateGetStartP12phFuncStruct@plt>:
    2e80:	ff 25 da a2 20 00    	jmpq   *0x20a2da(%rip)        # 20d160 <_Z15privateGetStartP12phFuncStruct@@Base+0x205f63>
    2e86:	68 29 00 00 00       	pushq  $0x29
    2e8b:	e9 50 fd ff ff       	jmpq   2be0 <.plt>

0000000000002e90 <_Z17privateBinReprobeP12phFuncStructPlS1_@plt>:
    2e90:	ff 25 d2 a2 20 00    	jmpq   *0x20a2d2(%rip)        # 20d168 <_Z17privateBinReprobeP12phFuncStructPlS1_@@Base+0x205b03>
    2e96:	68 2a 00 00 00       	pushq  $0x2a
    2e9b:	e9 40 fd ff ff       	jmpq   2be0 <.plt>

0000000000002ea0 <_Z14phConfConfTypeP16phConfConfStructPKciPiP12phConfType_tS3_@plt>:
    2ea0:	ff 25 ca a2 20 00    	jmpq   *0x20a2ca(%rip)        # 20d170 <_Z14phConfConfTypeP16phConfConfStructPKciPiP12phConfType_tS3_>
    2ea6:	68 2b 00 00 00       	pushq  $0x2b
    2eab:	e9 30 fd ff ff       	jmpq   2be0 <.plt>

0000000000002eb0 <_Z12phFuncTaInitP12phFuncStruct@plt>:
    2eb0:	ff 25 c2 a2 20 00    	jmpq   *0x20a2c2(%rip)        # 20d178 <_Z12phFuncTaInitP12phFuncStruct@@Base+0x205561>
    2eb6:	68 2c 00 00 00       	pushq  $0x2c
    2ebb:	e9 20 fd ff ff       	jmpq   2be0 <.plt>

0000000000002ec0 <_Z16privateBinDeviceP12phFuncStructPl@plt>:
    2ec0:	ff 25 ba a2 20 00    	jmpq   *0x20a2ba(%rip)        # 20d180 <_Z16privateBinDeviceP12phFuncStructPl@@Base+0x205cfb>
    2ec6:	68 2d 00 00 00       	pushq  $0x2d
    2ecb:	e9 10 fd ff ff       	jmpq   2be0 <.plt>

0000000000002ed0 <_Z20phEstateAGetSiteInfoP14phEstateStructPP19phEstateSiteUsage_tPi@plt>:
    2ed0:	ff 25 b2 a2 20 00    	jmpq   *0x20a2b2(%rip)        # 20d188 <_Z20phEstateAGetSiteInfoP14phEstateStructPP19phEstateSiteUsage_tPi>
    2ed6:	68 2e 00 00 00       	pushq  $0x2e
    2edb:	e9 00 fd ff ff       	jmpq   2be0 <.plt>

0000000000002ee0 <__errno_location@plt>:
    2ee0:	ff 25 aa a2 20 00    	jmpq   *0x20a2aa(%rip)        # 20d190 <__errno_location@GLIBC_2.2.5>
    2ee6:	68 2f 00 00 00       	pushq  $0x2f
    2eeb:	e9 f0 fc ff ff       	jmpq   2be0 <.plt>

0000000000002ef0 <strdup@plt>:
    2ef0:	ff 25 a2 a2 20 00    	jmpq   *0x20a2a2(%rip)        # 20d198 <strdup@GLIBC_2.2.5>
    2ef6:	68 30 00 00 00       	pushq  $0x30
    2efb:	e9 e0 fc ff ff       	jmpq   2be0 <.plt>

0000000000002f00 <_Z12phFuncTaStopP12phFuncStruct@plt>:
    2f00:	ff 25 9a a2 20 00    	jmpq   *0x20a29a(%rip)        # 20d1a0 <_Z12phFuncTaStopP12phFuncStruct@@Base+0x2053d5>
    2f06:	68 31 00 00 00       	pushq  $0x31
    2f0b:	e9 d0 fc ff ff       	jmpq   2be0 <.plt>

0000000000002f10 <strcmp@plt>:
    2f10:	ff 25 92 a2 20 00    	jmpq   *0x20a292(%rip)        # 20d1a8 <strcmp@GLIBC_2.2.5>
    2f16:	68 32 00 00 00       	pushq  $0x32
    2f1b:	e9 c0 fc ff ff       	jmpq   2be0 <.plt>

0000000000002f20 <strcpy@plt>:
    2f20:	ff 25 8a a2 20 00    	jmpq   *0x20a28a(%rip)        # 20d1b0 <strcpy@GLIBC_2.2.5>
    2f26:	68 33 00 00 00       	pushq  $0x33
    2f2b:	e9 b0 fc ff ff       	jmpq   2be0 <.plt>

0000000000002f30 <_Z15phComLanReceiveP11phComStructPPKcPil@plt>:
    2f30:	ff 25 82 a2 20 00    	jmpq   *0x20a282(%rip)        # 20d1b8 <_Z15phComLanReceiveP11phComStructPPKcPil>
    2f36:	68 34 00 00 00       	pushq  $0x34
    2f3b:	e9 a0 fc ff ff       	jmpq   2be0 <.plt>

0000000000002f40 <strtok@plt>:
    2f40:	ff 25 7a a2 20 00    	jmpq   *0x20a27a(%rip)        # 20d1c0 <strtok@GLIBC_2.2.5>
    2f46:	68 35 00 00 00       	pushq  $0x35
    2f4b:	e9 90 fc ff ff       	jmpq   2be0 <.plt>

0000000000002f50 <strncpy@plt>:
    2f50:	ff 25 72 a2 20 00    	jmpq   *0x20a272(%rip)        # 20d1c8 <strncpy@GLIBC_2.2.5>
    2f56:	68 36 00 00 00       	pushq  $0x36
    2f5b:	e9 80 fc ff ff       	jmpq   2be0 <.plt>

0000000000002f60 <_Z15phFuncTaReceiveP12phFuncStructiPKcz@plt>:
    2f60:	ff 25 6a a2 20 00    	jmpq   *0x20a26a(%rip)        # 20d1d0 <_Z15phFuncTaReceiveP12phFuncStructiPKcz@@Base+0x204c32>
    2f66:	68 37 00 00 00       	pushq  $0x37
    2f6b:	e9 70 fc ff ff       	jmpq   2be0 <.plt>

0000000000002f70 <_Z16phFuncTaAskAbortP12phFuncStruct@plt>:
    2f70:	ff 25 62 a2 20 00    	jmpq   *0x20a262(%rip)        # 20d1d8 <_Z16phFuncTaAskAbortP12phFuncStruct@@Base+0x2053a8>
    2f76:	68 38 00 00 00       	pushq  $0x38
    2f7b:	e9 60 fc ff ff       	jmpq   2be0 <.plt>

0000000000002f80 <_Z20phFuncTaRemoveToMarkP12phFuncStruct@plt>:
    2f80:	ff 25 5a a2 20 00    	jmpq   *0x20a25a(%rip)        # 20d1e0 <_Z20phFuncTaRemoveToMarkP12phFuncStruct@@Base+0x205100>
    2f86:	68 39 00 00 00       	pushq  $0x39
    2f8b:	e9 50 fc ff ff       	jmpq   2be0 <.plt>

0000000000002f90 <_Z12phFuncTaSendP12phFuncStructPKcz@plt>:
    2f90:	ff 25 52 a2 20 00    	jmpq   *0x20a252(%rip)        # 20d1e8 <_Z12phFuncTaSendP12phFuncStructPKcz@@Base+0x20502e>
    2f96:	68 3a 00 00 00       	pushq  $0x3a
    2f9b:	e9 40 fc ff ff       	jmpq   2be0 <.plt>

0000000000002fa0 <_Z18phFuncPredefModelsPPcPP8modelDef@plt>:
    2fa0:	ff 25 4a a2 20 00    	jmpq   *0x20a24a(%rip)        # 20d1f0 <_Z18phFuncPredefModelsPPcPP8modelDef@@Base+0x20a11b>
    2fa6:	68 3b 00 00 00       	pushq  $0x3b
    2fab:	e9 30 fc ff ff       	jmpq   2be0 <.plt>

0000000000002fb0 <_Z15phFuncTaSetCallP12phFuncStruct20phFuncAvailability_t@plt>:
    2fb0:	ff 25 42 a2 20 00    	jmpq   *0x20a242(%rip)        # 20d1f8 <_Z15phFuncTaSetCallP12phFuncStruct20phFuncAvailability_t@@Base+0x205597>
    2fb6:	68 3c 00 00 00       	pushq  $0x3c
    2fbb:	e9 20 fc ff ff       	jmpq   2be0 <.plt>

0000000000002fc0 <_Z12phComLanSendP11phComStructPcil@plt>:
    2fc0:	ff 25 3a a2 20 00    	jmpq   *0x20a23a(%rip)        # 20d200 <_Z12phComLanSendP11phComStructPcil>
    2fc6:	68 3d 00 00 00       	pushq  $0x3d
    2fcb:	e9 10 fc ff ff       	jmpq   2be0 <.plt>

0000000000002fd0 <_Z14callSRQHandlerP12phFuncStructiP13phFuncError_t@plt>:
    2fd0:	ff 25 32 a2 20 00    	jmpq   *0x20a232(%rip)        # 20d208 <_Z14callSRQHandlerP12phFuncStructiP13phFuncError_t@@Base+0x2043cb>
    2fd6:	68 3e 00 00 00       	pushq  $0x3e
    2fdb:	e9 00 fc ff ff       	jmpq   2be0 <.plt>

0000000000002fe0 <_Z17phComGpibGetEventP11phComStructPP9gpibEventPil@plt>:
    2fe0:	ff 25 2a a2 20 00    	jmpq   *0x20a22a(%rip)        # 20d210 <_Z17phComGpibGetEventP11phComStructPP9gpibEventPil>
    2fe6:	68 3f 00 00 00       	pushq  $0x3f
    2feb:	e9 f0 fb ff ff       	jmpq   2be0 <.plt>

Disassembly of section .text:

0000000000002ff0 <deregister_tm_clones>:
    2ff0:	48 8d 05 c8 a6 20 00 	lea    0x20a6c8(%rip),%rax        # 20d6bf <_edata+0x7>
    2ff7:	48 8d 3d ba a6 20 00 	lea    0x20a6ba(%rip),%rdi        # 20d6b8 <_edata>
    2ffe:	55                   	push   %rbp
    2fff:	48 29 f8             	sub    %rdi,%rax
    3002:	48 89 e5             	mov    %rsp,%rbp
    3005:	48 83 f8 0e          	cmp    $0xe,%rax
    3009:	77 02                	ja     300d <deregister_tm_clones+0x1d>
    300b:	5d                   	pop    %rbp
    300c:	c3                   	retq   
    300d:	48 8b 05 d4 9f 20 00 	mov    0x209fd4(%rip),%rax        # 20cfe8 <_ITM_deregisterTMCloneTable>
    3014:	48 85 c0             	test   %rax,%rax
    3017:	74 f2                	je     300b <deregister_tm_clones+0x1b>
    3019:	5d                   	pop    %rbp
    301a:	ff e0                	jmpq   *%rax
    301c:	0f 1f 40 00          	nopl   0x0(%rax)

0000000000003020 <register_tm_clones>:
    3020:	48 8d 05 91 a6 20 00 	lea    0x20a691(%rip),%rax        # 20d6b8 <_edata>
    3027:	48 8d 3d 8a a6 20 00 	lea    0x20a68a(%rip),%rdi        # 20d6b8 <_edata>
    302e:	55                   	push   %rbp
    302f:	48 29 f8             	sub    %rdi,%rax
    3032:	48 89 e5             	mov    %rsp,%rbp
    3035:	48 c1 f8 03          	sar    $0x3,%rax
    3039:	48 89 c2             	mov    %rax,%rdx
    303c:	48 c1 ea 3f          	shr    $0x3f,%rdx
    3040:	48 01 d0             	add    %rdx,%rax
    3043:	48 d1 f8             	sar    %rax
    3046:	75 02                	jne    304a <register_tm_clones+0x2a>
    3048:	5d                   	pop    %rbp
    3049:	c3                   	retq   
    304a:	48 8b 15 9f 9f 20 00 	mov    0x209f9f(%rip),%rdx        # 20cff0 <_ITM_registerTMCloneTable>
    3051:	48 85 d2             	test   %rdx,%rdx
    3054:	74 f2                	je     3048 <register_tm_clones+0x28>
    3056:	5d                   	pop    %rbp
    3057:	48 89 c6             	mov    %rax,%rsi
    305a:	ff e2                	jmpq   *%rdx
    305c:	0f 1f 40 00          	nopl   0x0(%rax)

0000000000003060 <__do_global_dtors_aux>:
    3060:	80 3d 59 a6 20 00 00 	cmpb   $0x0,0x20a659(%rip)        # 20d6c0 <completed.6355>
    3067:	75 27                	jne    3090 <__do_global_dtors_aux+0x30>
    3069:	48 83 3d 87 9f 20 00 	cmpq   $0x0,0x209f87(%rip)        # 20cff8 <__cxa_finalize@GLIBC_2.2.5>
    3070:	00 
    3071:	55                   	push   %rbp
    3072:	48 89 e5             	mov    %rsp,%rbp
    3075:	74 0c                	je     3083 <__do_global_dtors_aux+0x23>
    3077:	48 8d 3d 52 9d 20 00 	lea    0x209d52(%rip),%rdi        # 20cdd0 <__dso_handle>
    307e:	e8 fd fc ff ff       	callq  2d80 <__cxa_finalize@plt>
    3083:	e8 68 ff ff ff       	callq  2ff0 <deregister_tm_clones>
    3088:	5d                   	pop    %rbp
    3089:	c6 05 30 a6 20 00 01 	movb   $0x1,0x20a630(%rip)        # 20d6c0 <completed.6355>
    3090:	f3 c3                	repz retq 
    3092:	0f 1f 40 00          	nopl   0x0(%rax)
    3096:	66 2e 0f 1f 84 00 00 	nopw   %cs:0x0(%rax,%rax,1)
    309d:	00 00 00 

00000000000030a0 <frame_dummy>:
    30a0:	48 83 3d 20 9d 20 00 	cmpq   $0x0,0x209d20(%rip)        # 20cdc8 <__JCR_END__>
    30a7:	00 
    30a8:	74 26                	je     30d0 <frame_dummy+0x30>
    30aa:	48 8b 05 2f 9f 20 00 	mov    0x209f2f(%rip),%rax        # 20cfe0 <_Jv_RegisterClasses>
    30b1:	48 85 c0             	test   %rax,%rax
    30b4:	74 1a                	je     30d0 <frame_dummy+0x30>
    30b6:	55                   	push   %rbp
    30b7:	48 8d 3d 0a 9d 20 00 	lea    0x209d0a(%rip),%rdi        # 20cdc8 <__JCR_END__>
    30be:	48 89 e5             	mov    %rsp,%rbp
    30c1:	ff d0                	callq  *%rax
    30c3:	5d                   	pop    %rbp
    30c4:	e9 57 ff ff ff       	jmpq   3020 <register_tm_clones>
    30c9:	0f 1f 80 00 00 00 00 	nopl   0x0(%rax)
    30d0:	e9 4b ff ff ff       	jmpq   3020 <register_tm_clones>

00000000000030d5 <_Z18phFuncPredefModelsPPcPP8modelDef>:
    30d5:	55                   	push   %rbp
    30d6:	48 89 e5             	mov    %rsp,%rbp
    30d9:	48 89 7d f8          	mov    %rdi,-0x8(%rbp)
    30dd:	48 89 75 f0          	mov    %rsi,-0x10(%rbp)
    30e1:	48 8b 45 f8          	mov    -0x8(%rbp),%rax
    30e5:	48 8d 15 34 a1 20 00 	lea    0x20a134(%rip),%rdx        # 20d220 <_ZZ18phFuncPredefModelsPPcPP8modelDefE8myFamily>
    30ec:	48 89 10             	mov    %rdx,(%rax)
    30ef:	48 8b 45 f0          	mov    -0x10(%rbp),%rax
    30f3:	48 8d 15 26 a2 20 00 	lea    0x20a226(%rip),%rdx        # 20d320 <_ZZ18phFuncPredefModelsPPcPP8modelDefE8myModels>
    30fa:	48 89 10             	mov    %rdx,(%rax)
    30fd:	5d                   	pop    %rbp
    30fe:	c3                   	retq   

00000000000030ff <_Z21phFuncGpibReconfigureP12phFuncStruct>:
    30ff:	55                   	push   %rbp
    3100:	48 89 e5             	mov    %rsp,%rbp
    3103:	48 83 ec 10          	sub    $0x10,%rsp
    3107:	48 89 7d f8          	mov    %rdi,-0x8(%rbp)
    310b:	48 8b 45 f8          	mov    -0x8(%rbp),%rax
    310f:	48 8b 40 10          	mov    0x10(%rax),%rax
    3113:	48 8b 55 f8          	mov    -0x8(%rbp),%rdx
    3117:	48 89 d1             	mov    %rdx,%rcx
    311a:	48 8d 15 a7 6c 00 00 	lea    0x6ca7(%rip),%rdx        # 9dc8 <_fini+0x7bc>
    3121:	be 03 00 00 00       	mov    $0x3,%esi
    3126:	48 89 c7             	mov    %rax,%rdi
    3129:	b8 00 00 00 00       	mov    $0x0,%eax
    312e:	e8 bd fa ff ff       	callq  2bf0 <_Z16phLogFuncMessageP11phLogStruct11phLogType_tPKcz@plt>
    3133:	b8 01 00 00 00       	mov    $0x1,%eax
    3138:	c9                   	leaveq 
    3139:	c3                   	retq   

000000000000313a <_Z16phFuncSimResultsP13phFuncError_ti>:
    313a:	55                   	push   %rbp
    313b:	48 89 e5             	mov    %rsp,%rbp
    313e:	48 89 7d f8          	mov    %rdi,-0x8(%rbp)
    3142:	89 75 f4             	mov    %esi,-0xc(%rbp)
    3145:	48 8b 45 f8          	mov    -0x8(%rbp),%rax
    3149:	48 89 05 98 a5 20 00 	mov    %rax,0x20a598(%rip)        # 20d6e8 <_ZL17dummyReturnValues>
    3150:	8b 45 f4             	mov    -0xc(%rbp),%eax
    3153:	89 05 97 a5 20 00    	mov    %eax,0x20a597(%rip)        # 20d6f0 <_ZL16dummyReturnCount>
    3159:	c7 05 91 a5 20 00 00 	movl   $0x0,0x20a591(%rip)        # 20d6f4 <_ZL16dummyReturnIndex>
    3160:	00 00 00 
    3163:	5d                   	pop    %rbp
    3164:	c3                   	retq   

0000000000003165 <_ZL12RememberCallP12phFuncStruct20phFuncAvailability_t>:
    3165:	55                   	push   %rbp
    3166:	48 89 e5             	mov    %rsp,%rbp
    3169:	48 83 ec 10          	sub    $0x10,%rsp
    316d:	48 89 7d f8          	mov    %rdi,-0x8(%rbp)
    3171:	89 75 f4             	mov    %esi,-0xc(%rbp)
    3174:	48 8b 45 f8          	mov    -0x8(%rbp),%rax
    3178:	8b 80 78 40 00 00    	mov    0x4078(%rax),%eax
    317e:	83 f8 03             	cmp    $0x3,%eax
    3181:	74 24                	je     31a7 <_ZL12RememberCallP12phFuncStruct20phFuncAvailability_t+0x42>
    3183:	83 f8 03             	cmp    $0x3,%eax
    3186:	7f 07                	jg     318f <_ZL12RememberCallP12phFuncStruct20phFuncAvailability_t+0x2a>
    3188:	83 f8 02             	cmp    $0x2,%eax
    318b:	74 07                	je     3194 <_ZL12RememberCallP12phFuncStruct20phFuncAvailability_t+0x2f>
    318d:	eb 1b                	jmp    31aa <_ZL12RememberCallP12phFuncStruct20phFuncAvailability_t+0x45>
    318f:	83 f8 05             	cmp    $0x5,%eax
    3192:	7f 16                	jg     31aa <_ZL12RememberCallP12phFuncStruct20phFuncAvailability_t+0x45>
    3194:	8b 55 f4             	mov    -0xc(%rbp),%edx
    3197:	48 8b 45 f8          	mov    -0x8(%rbp),%rax
    319b:	89 d6                	mov    %edx,%esi
    319d:	48 89 c7             	mov    %rax,%rdi
    31a0:	e8 0b fe ff ff       	callq  2fb0 <_Z15phFuncTaSetCallP12phFuncStruct20phFuncAvailability_t@plt>
    31a5:	eb 04                	jmp    31ab <_ZL12RememberCallP12phFuncStruct20phFuncAvailability_t+0x46>
    31a7:	90                   	nop
    31a8:	eb 01                	jmp    31ab <_ZL12RememberCallP12phFuncStruct20phFuncAvailability_t+0x46>
    31aa:	90                   	nop
    31ab:	c9                   	leaveq 
    31ac:	c3                   	retq   

00000000000031ad <_ZL13writeLongListiPl>:
    31ad:	55                   	push   %rbp
    31ae:	48 89 e5             	mov    %rsp,%rbp
    31b1:	48 83 ec 30          	sub    $0x30,%rsp
    31b5:	89 7d dc             	mov    %edi,-0x24(%rbp)
    31b8:	48 89 75 d0          	mov    %rsi,-0x30(%rbp)
    31bc:	8b 05 56 a2 20 00    	mov    0x20a256(%rip),%eax        # 20d418 <_ZZL13writeLongListiPlE10useListOne>
    31c2:	85 c0                	test   %eax,%eax
    31c4:	74 09                	je     31cf <_ZL13writeLongListiPl+0x22>
    31c6:	48 8d 05 33 a5 20 00 	lea    0x20a533(%rip),%rax        # 20d700 <_ZZL13writeLongListiPlE7listOne>
    31cd:	eb 07                	jmp    31d6 <_ZL13writeLongListiPl+0x29>
    31cf:	48 8d 05 2a a9 20 00 	lea    0x20a92a(%rip),%rax        # 20db00 <_ZZL13writeLongListiPlE7listTwo>
    31d6:	48 89 45 f0          	mov    %rax,-0x10(%rbp)
    31da:	8b 05 38 a2 20 00    	mov    0x20a238(%rip),%eax        # 20d418 <_ZZL13writeLongListiPlE10useListOne>
    31e0:	85 c0                	test   %eax,%eax
    31e2:	0f 94 c0             	sete   %al
    31e5:	0f b6 c0             	movzbl %al,%eax
    31e8:	89 05 2a a2 20 00    	mov    %eax,0x20a22a(%rip)        # 20d418 <_ZZL13writeLongListiPlE10useListOne>
    31ee:	48 83 7d d0 00       	cmpq   $0x0,-0x30(%rbp)
    31f3:	75 13                	jne    3208 <_ZL13writeLongListiPl+0x5b>
    31f5:	48 8b 45 f0          	mov    -0x10(%rbp),%rax
    31f9:	c7 00 4e 55 4c 4c    	movl   $0x4c4c554e,(%rax)
    31ff:	c6 40 04 00          	movb   $0x0,0x4(%rax)
    3203:	e9 0f 01 00 00       	jmpq   3317 <_ZL13writeLongListiPl+0x16a>
    3208:	48 8b 45 f0          	mov    -0x10(%rbp),%rax
    320c:	66 c7 00 5b 00       	movw   $0x5b,(%rax)
    3211:	c7 45 fc 00 00 00 00 	movl   $0x0,-0x4(%rbp)
    3218:	e9 83 00 00 00       	jmpq   32a0 <_ZL13writeLongListiPl+0xf3>
    321d:	8b 45 fc             	mov    -0x4(%rbp),%eax
    3220:	48 98                	cltq   
    3222:	48 8d 14 c5 00 00 00 	lea    0x0(,%rax,8),%rdx
    3229:	00 
    322a:	48 8b 45 d0          	mov    -0x30(%rbp),%rax
    322e:	48 01 d0             	add    %rdx,%rax
    3231:	48 8b 10             	mov    (%rax),%rdx
    3234:	48 8d 45 e0          	lea    -0x20(%rbp),%rax
    3238:	48 8d 35 75 6f 00 00 	lea    0x6f75(%rip),%rsi        # a1b4 <_fini+0xba8>
    323f:	48 89 c7             	mov    %rax,%rdi
    3242:	b8 00 00 00 00       	mov    $0x0,%eax
    3247:	e8 44 fb ff ff       	callq  2d90 <sprintf@plt>
    324c:	48 8d 55 e0          	lea    -0x20(%rbp),%rdx
    3250:	48 8b 45 f0          	mov    -0x10(%rbp),%rax
    3254:	48 89 d6             	mov    %rdx,%rsi
    3257:	48 89 c7             	mov    %rax,%rdi
    325a:	e8 c1 fb ff ff       	callq  2e20 <strcat@plt>
    325f:	8b 45 fc             	mov    -0x4(%rbp),%eax
    3262:	83 c0 01             	add    $0x1,%eax
    3265:	3b 45 dc             	cmp    -0x24(%rbp),%eax
    3268:	7d 32                	jge    329c <_ZL13writeLongListiPl+0xef>
    326a:	48 8b 45 f0          	mov    -0x10(%rbp),%rax
    326e:	48 c7 c1 ff ff ff ff 	mov    $0xffffffffffffffff,%rcx
    3275:	48 89 c2             	mov    %rax,%rdx
    3278:	b8 00 00 00 00       	mov    $0x0,%eax
    327d:	48 89 d7             	mov    %rdx,%rdi
    3280:	f2 ae                	repnz scas %es:(%rdi),%al
    3282:	48 89 c8             	mov    %rcx,%rax
    3285:	48 f7 d0             	not    %rax
    3288:	48 8d 50 ff          	lea    -0x1(%rax),%rdx
    328c:	48 8b 45 f0          	mov    -0x10(%rbp),%rax
    3290:	48 01 d0             	add    %rdx,%rax
    3293:	66 c7 00 2c 20       	movw   $0x202c,(%rax)
    3298:	c6 40 02 00          	movb   $0x0,0x2(%rax)
    329c:	83 45 fc 01          	addl   $0x1,-0x4(%rbp)
    32a0:	8b 45 fc             	mov    -0x4(%rbp),%eax
    32a3:	3b 45 dc             	cmp    -0x24(%rbp),%eax
    32a6:	7d 0a                	jge    32b2 <_ZL13writeLongListiPl+0x105>
    32a8:	83 7d fc 1f          	cmpl   $0x1f,-0x4(%rbp)
    32ac:	0f 8e 6b ff ff ff    	jle    321d <_ZL13writeLongListiPl+0x70>
    32b2:	8b 45 fc             	mov    -0x4(%rbp),%eax
    32b5:	3b 45 dc             	cmp    -0x24(%rbp),%eax
    32b8:	7d 2f                	jge    32e9 <_ZL13writeLongListiPl+0x13c>
    32ba:	48 8b 45 f0          	mov    -0x10(%rbp),%rax
    32be:	48 c7 c1 ff ff ff ff 	mov    $0xffffffffffffffff,%rcx
    32c5:	48 89 c2             	mov    %rax,%rdx
    32c8:	b8 00 00 00 00       	mov    $0x0,%eax
    32cd:	48 89 d7             	mov    %rdx,%rdi
    32d0:	f2 ae                	repnz scas %es:(%rdi),%al
    32d2:	48 89 c8             	mov    %rcx,%rax
    32d5:	48 f7 d0             	not    %rax
    32d8:	48 8d 50 ff          	lea    -0x1(%rax),%rdx
    32dc:	48 8b 45 f0          	mov    -0x10(%rbp),%rax
    32e0:	48 01 d0             	add    %rdx,%rax
    32e3:	c7 00 2e 2e 2e 00    	movl   $0x2e2e2e,(%rax)
    32e9:	48 8b 45 f0          	mov    -0x10(%rbp),%rax
    32ed:	48 c7 c1 ff ff ff ff 	mov    $0xffffffffffffffff,%rcx
    32f4:	48 89 c2             	mov    %rax,%rdx
    32f7:	b8 00 00 00 00       	mov    $0x0,%eax
    32fc:	48 89 d7             	mov    %rdx,%rdi
    32ff:	f2 ae                	repnz scas %es:(%rdi),%al
    3301:	48 89 c8             	mov    %rcx,%rax
    3304:	48 f7 d0             	not    %rax
    3307:	48 8d 50 ff          	lea    -0x1(%rax),%rdx
    330b:	48 8b 45 f0          	mov    -0x10(%rbp),%rax
    330f:	48 01 d0             	add    %rdx,%rax
    3312:	66 c7 00 5d 00       	movw   $0x5d,(%rax)
    3317:	48 8b 45 f0          	mov    -0x10(%rbp),%rax
    331b:	c9                   	leaveq 
    331c:	c3                   	retq   

000000000000331d <_ZL22phFuncRS232ReconfigureP12phFuncStruct>:
    331d:	55                   	push   %rbp
    331e:	48 89 e5             	mov    %rsp,%rbp
    3321:	48 83 ec 10          	sub    $0x10,%rsp
    3325:	48 89 7d f8          	mov    %rdi,-0x8(%rbp)
    3329:	48 8b 05 b0 a3 20 00 	mov    0x20a3b0(%rip),%rax        # 20d6e0 <_ZL8myLogger>
    3330:	48 8b 55 f8          	mov    -0x8(%rbp),%rdx
    3334:	48 89 d1             	mov    %rdx,%rcx
    3337:	48 8d 15 7a 6e 00 00 	lea    0x6e7a(%rip),%rdx        # a1b8 <_fini+0xbac>
    333e:	be 03 00 00 00       	mov    $0x3,%esi
    3343:	48 89 c7             	mov    %rax,%rdi
    3346:	b8 00 00 00 00       	mov    $0x0,%eax
    334b:	e8 a0 f8 ff ff       	callq  2bf0 <_Z16phLogFuncMessageP11phLogStruct11phLogType_tPKcz@plt>
    3350:	b8 01 00 00 00       	mov    $0x1,%eax
    3355:	c9                   	leaveq 
    3356:	c3                   	retq   

0000000000003357 <_ZL17reconfigureGlobalP12phFuncStruct>:
    3357:	55                   	push   %rbp
    3358:	48 89 e5             	mov    %rsp,%rbp
    335b:	48 83 ec 60          	sub    $0x60,%rsp
    335f:	48 89 7d a8          	mov    %rdi,-0x58(%rbp)
    3363:	c7 45 fc 01 00 00 00 	movl   $0x1,-0x4(%rbp)
    336a:	48 c7 45 b0 00 00 00 	movq   $0x0,-0x50(%rbp)
    3371:	00 
    3372:	48 8b 05 67 a3 20 00 	mov    0x20a367(%rip),%rax        # 20d6e0 <_ZL8myLogger>
    3379:	48 8b 55 a8          	mov    -0x58(%rbp),%rdx
    337d:	48 89 d1             	mov    %rdx,%rcx
    3380:	48 8d 15 47 6e 00 00 	lea    0x6e47(%rip),%rdx        # a1ce <_fini+0xbc2>
    3387:	be 03 00 00 00       	mov    $0x3,%esi
    338c:	48 89 c7             	mov    %rax,%rdi
    338f:	b8 00 00 00 00       	mov    $0x0,%eax
    3394:	e8 57 f8 ff ff       	callq  2bf0 <_Z16phLogFuncMessageP11phLogStruct11phLogType_tPKcz@plt>
    3399:	48 8b 45 a8          	mov    -0x58(%rbp),%rax
    339d:	48 8b 40 28          	mov    0x28(%rax),%rax
    33a1:	48 8d 55 e4          	lea    -0x1c(%rbp),%rdx
    33a5:	48 8d 4d e8          	lea    -0x18(%rbp),%rcx
    33a9:	48 89 ce             	mov    %rcx,%rsi
    33ac:	48 89 c7             	mov    %rax,%rdi
    33af:	e8 1c fb ff ff       	callq  2ed0 <_Z20phEstateAGetSiteInfoP14phEstateStructPP19phEstateSiteUsage_tPi@plt>
    33b4:	89 45 f4             	mov    %eax,-0xc(%rbp)
    33b7:	83 7d f4 00          	cmpl   $0x0,-0xc(%rbp)
    33bb:	0f 85 08 01 00 00    	jne    34c9 <_ZL17reconfigureGlobalP12phFuncStruct+0x172>
    33c1:	8b 55 e4             	mov    -0x1c(%rbp),%edx
    33c4:	48 8b 45 a8          	mov    -0x58(%rbp),%rax
    33c8:	89 50 50             	mov    %edx,0x50(%rax)
    33cb:	c7 45 e0 00 00 00 00 	movl   $0x0,-0x20(%rbp)
    33d2:	e9 e4 00 00 00       	jmpq   34bb <_ZL17reconfigureGlobalP12phFuncStruct+0x164>
    33d7:	48 8b 45 e8          	mov    -0x18(%rbp),%rax
    33db:	8b 55 e0             	mov    -0x20(%rbp),%edx
    33de:	48 63 d2             	movslq %edx,%rdx
    33e1:	48 c1 e2 02          	shl    $0x2,%rdx
    33e5:	48 01 d0             	add    %rdx,%rax
    33e8:	8b 00                	mov    (%rax),%eax
    33ea:	83 f8 02             	cmp    $0x2,%eax
    33ed:	74 2a                	je     3419 <_ZL17reconfigureGlobalP12phFuncStruct+0xc2>
    33ef:	83 f8 02             	cmp    $0x2,%eax
    33f2:	7f 06                	jg     33fa <_ZL17reconfigureGlobalP12phFuncStruct+0xa3>
    33f4:	85 c0                	test   %eax,%eax
    33f6:	78 50                	js     3448 <_ZL17reconfigureGlobalP12phFuncStruct+0xf1>
    33f8:	eb 07                	jmp    3401 <_ZL17reconfigureGlobalP12phFuncStruct+0xaa>
    33fa:	83 f8 03             	cmp    $0x3,%eax
    33fd:	74 32                	je     3431 <_ZL17reconfigureGlobalP12phFuncStruct+0xda>
    33ff:	eb 47                	jmp    3448 <_ZL17reconfigureGlobalP12phFuncStruct+0xf1>
    3401:	8b 55 e0             	mov    -0x20(%rbp),%edx
    3404:	48 8b 45 a8          	mov    -0x58(%rbp),%rax
    3408:	48 63 d2             	movslq %edx,%rdx
    340b:	48 83 c2 14          	add    $0x14,%rdx
    340f:	c7 44 90 04 01 00 00 	movl   $0x1,0x4(%rax,%rdx,4)
    3416:	00 
    3417:	eb 2f                	jmp    3448 <_ZL17reconfigureGlobalP12phFuncStruct+0xf1>
    3419:	8b 55 e0             	mov    -0x20(%rbp),%edx
    341c:	48 8b 45 a8          	mov    -0x58(%rbp),%rax
    3420:	48 63 d2             	movslq %edx,%rdx
    3423:	48 83 c2 14          	add    $0x14,%rdx
    3427:	c7 44 90 04 00 00 00 	movl   $0x0,0x4(%rax,%rdx,4)
    342e:	00 
    342f:	eb 17                	jmp    3448 <_ZL17reconfigureGlobalP12phFuncStruct+0xf1>
    3431:	8b 55 e0             	mov    -0x20(%rbp),%edx
    3434:	48 8b 45 a8          	mov    -0x58(%rbp),%rax
    3438:	48 63 d2             	movslq %edx,%rdx
    343b:	48 83 c2 14          	add    $0x14,%rdx
    343f:	c7 44 90 04 ff ff ff 	movl   $0xffffffff,0x4(%rax,%rdx,4)
    3446:	ff 
    3447:	90                   	nop
    3448:	8b 45 e0             	mov    -0x20(%rbp),%eax
    344b:	48 98                	cltq   
    344d:	48 05 0a 04 00 00    	add    $0x40a,%rax
    3453:	48 8d 14 c5 00 00 00 	lea    0x0(,%rax,8),%rdx
    345a:	00 
    345b:	48 8b 45 a8          	mov    -0x58(%rbp),%rax
    345f:	48 01 d0             	add    %rdx,%rax
    3462:	48 8d 48 08          	lea    0x8(%rax),%rcx
    3466:	48 8b 45 a8          	mov    -0x58(%rbp),%rax
    346a:	48 8b 40 18          	mov    0x18(%rax),%rax
    346e:	48 8d 55 e0          	lea    -0x20(%rbp),%rdx
    3472:	49 89 c8             	mov    %rcx,%r8
    3475:	48 89 d1             	mov    %rdx,%rcx
    3478:	ba 01 00 00 00       	mov    $0x1,%edx
    347d:	48 8d 35 61 6d 00 00 	lea    0x6d61(%rip),%rsi        # a1e5 <_fini+0xbd9>
    3484:	48 89 c7             	mov    %rax,%rdi
    3487:	e8 b4 f7 ff ff       	callq  2c40 <_Z16phConfConfStringP16phConfConfStructPKciPiPS2_@plt>
    348c:	89 45 f8             	mov    %eax,-0x8(%rbp)
    348f:	83 7d f8 00          	cmpl   $0x0,-0x8(%rbp)
    3493:	74 1d                	je     34b2 <_ZL17reconfigureGlobalP12phFuncStruct+0x15b>
    3495:	8b 55 e0             	mov    -0x20(%rbp),%edx
    3498:	48 8b 45 a8          	mov    -0x58(%rbp),%rax
    349c:	48 63 d2             	movslq %edx,%rdx
    349f:	48 8d 8a 0a 04 00 00 	lea    0x40a(%rdx),%rcx
    34a6:	48 8d 15 53 aa 20 00 	lea    0x20aa53(%rip),%rdx        # 20df00 <_ZZL17reconfigureGlobalP12phFuncStructE11emptyString>
    34ad:	48 89 54 c8 08       	mov    %rdx,0x8(%rax,%rcx,8)
    34b2:	8b 45 e0             	mov    -0x20(%rbp),%eax
    34b5:	83 c0 01             	add    $0x1,%eax
    34b8:	89 45 e0             	mov    %eax,-0x20(%rbp)
    34bb:	8b 55 e0             	mov    -0x20(%rbp),%edx
    34be:	8b 45 e4             	mov    -0x1c(%rbp),%eax
    34c1:	39 c2                	cmp    %eax,%edx
    34c3:	0f 8c 0e ff ff ff    	jl     33d7 <_ZL17reconfigureGlobalP12phFuncStruct+0x80>
    34c9:	48 8b 45 a8          	mov    -0x58(%rbp),%rax
    34cd:	c7 80 40 61 00 00 01 	movl   $0x1,0x6140(%rax)
    34d4:	00 00 00 
    34d7:	48 8b 45 a8          	mov    -0x58(%rbp),%rax
    34db:	48 8b 40 18          	mov    0x18(%rax),%rax
    34df:	48 8d 35 10 6d 00 00 	lea    0x6d10(%rip),%rsi        # a1f6 <_fini+0xbea>
    34e6:	48 89 c7             	mov    %rax,%rdi
    34e9:	e8 32 f7 ff ff       	callq  2c20 <_Z15phConfConfIfDefP16phConfConfStructPKc@plt>
    34ee:	85 c0                	test   %eax,%eax
    34f0:	0f 94 c0             	sete   %al
    34f3:	84 c0                	test   %al,%al
    34f5:	0f 84 80 00 00 00    	je     357b <_ZL17reconfigureGlobalP12phFuncStruct+0x224>
    34fb:	48 8b 45 a8          	mov    -0x58(%rbp),%rax
    34ff:	48 8b 40 18          	mov    0x18(%rax),%rax
    3503:	48 8d 55 b0          	lea    -0x50(%rbp),%rdx
    3507:	49 89 d0             	mov    %rdx,%r8
    350a:	b9 00 00 00 00       	mov    $0x0,%ecx
    350f:	ba 00 00 00 00       	mov    $0x0,%edx
    3514:	48 8d 35 db 6c 00 00 	lea    0x6cdb(%rip),%rsi        # a1f6 <_fini+0xbea>
    351b:	48 89 c7             	mov    %rax,%rdi
    351e:	e8 1d f7 ff ff       	callq  2c40 <_Z16phConfConfStringP16phConfConfStructPKciPiPS2_@plt>
    3523:	89 45 f8             	mov    %eax,-0x8(%rbp)
    3526:	83 7d f8 00          	cmpl   $0x0,-0x8(%rbp)
    352a:	75 77                	jne    35a3 <_ZL17reconfigureGlobalP12phFuncStruct+0x24c>
    352c:	48 8b 45 b0          	mov    -0x50(%rbp),%rax
    3530:	48 8d 35 d8 6c 00 00 	lea    0x6cd8(%rip),%rsi        # a20f <_fini+0xc03>
    3537:	48 89 c7             	mov    %rax,%rdi
    353a:	e8 31 f7 ff ff       	callq  2c70 <strcasecmp@plt>
    353f:	85 c0                	test   %eax,%eax
    3541:	75 60                	jne    35a3 <_ZL17reconfigureGlobalP12phFuncStruct+0x24c>
    3543:	48 8b 45 a8          	mov    -0x58(%rbp),%rax
    3547:	48 8b 40 10          	mov    0x10(%rax),%rax
    354b:	48 8d 0d a4 6c 00 00 	lea    0x6ca4(%rip),%rcx        # a1f6 <_fini+0xbea>
    3552:	48 8d 15 b9 6c 00 00 	lea    0x6cb9(%rip),%rdx        # a212 <_fini+0xc06>
    3559:	be 03 00 00 00       	mov    $0x3,%esi
    355e:	48 89 c7             	mov    %rax,%rdi
    3561:	b8 00 00 00 00       	mov    $0x0,%eax
    3566:	e8 85 f6 ff ff       	callq  2bf0 <_Z16phLogFuncMessageP11phLogStruct11phLogType_tPKcz@plt>
    356b:	48 8b 45 a8          	mov    -0x58(%rbp),%rax
    356f:	c7 80 40 61 00 00 00 	movl   $0x0,0x6140(%rax)
    3576:	00 00 00 
    3579:	eb 28                	jmp    35a3 <_ZL17reconfigureGlobalP12phFuncStruct+0x24c>
    357b:	48 8b 45 a8          	mov    -0x58(%rbp),%rax
    357f:	48 8b 40 10          	mov    0x10(%rax),%rax
    3583:	48 8d 0d 6c 6c 00 00 	lea    0x6c6c(%rip),%rcx        # a1f6 <_fini+0xbea>
    358a:	48 8d 15 9f 6c 00 00 	lea    0x6c9f(%rip),%rdx        # a230 <_fini+0xc24>
    3591:	be 03 00 00 00       	mov    $0x3,%esi
    3596:	48 89 c7             	mov    %rax,%rdi
    3599:	b8 00 00 00 00       	mov    $0x0,%eax
    359e:	e8 4d f6 ff ff       	callq  2bf0 <_Z16phLogFuncMessageP11phLogStruct11phLogType_tPKcz@plt>
    35a3:	48 8b 45 a8          	mov    -0x58(%rbp),%rax
    35a7:	c7 80 58 40 00 00 00 	movl   $0x0,0x4058(%rax)
    35ae:	00 00 00 
    35b1:	48 8b 45 a8          	mov    -0x58(%rbp),%rax
    35b5:	48 8b 40 18          	mov    0x18(%rax),%rax
    35b9:	48 8d 35 b9 6c 00 00 	lea    0x6cb9(%rip),%rsi        # a279 <_fini+0xc6d>
    35c0:	48 89 c7             	mov    %rax,%rdi
    35c3:	e8 58 f6 ff ff       	callq  2c20 <_Z15phConfConfIfDefP16phConfConfStructPKc@plt>
    35c8:	85 c0                	test   %eax,%eax
    35ca:	0f 94 c0             	sete   %al
    35cd:	84 c0                	test   %al,%al
    35cf:	0f 84 32 01 00 00    	je     3707 <_ZL17reconfigureGlobalP12phFuncStruct+0x3b0>
    35d5:	c7 45 dc 00 00 00 00 	movl   $0x0,-0x24(%rbp)
    35dc:	48 8b 45 a8          	mov    -0x58(%rbp),%rax
    35e0:	48 8b 40 18          	mov    0x18(%rax),%rax
    35e4:	48 8d 4d dc          	lea    -0x24(%rbp),%rcx
    35e8:	48 8d 55 d8          	lea    -0x28(%rbp),%rdx
    35ec:	49 89 c9             	mov    %rcx,%r9
    35ef:	49 89 d0             	mov    %rdx,%r8
    35f2:	b9 00 00 00 00       	mov    $0x0,%ecx
    35f7:	ba 00 00 00 00       	mov    $0x0,%edx
    35fc:	48 8d 35 76 6c 00 00 	lea    0x6c76(%rip),%rsi        # a279 <_fini+0xc6d>
    3603:	48 89 c7             	mov    %rax,%rdi
    3606:	e8 95 f8 ff ff       	callq  2ea0 <_Z14phConfConfTypeP16phConfConfStructPKciPiP12phConfType_tS3_@plt>
    360b:	89 45 f8             	mov    %eax,-0x8(%rbp)
    360e:	83 7d f8 00          	cmpl   $0x0,-0x8(%rbp)
    3612:	75 0f                	jne    3623 <_ZL17reconfigureGlobalP12phFuncStruct+0x2cc>
    3614:	8b 45 d8             	mov    -0x28(%rbp),%eax
    3617:	83 f8 04             	cmp    $0x4,%eax
    361a:	75 07                	jne    3623 <_ZL17reconfigureGlobalP12phFuncStruct+0x2cc>
    361c:	8b 45 dc             	mov    -0x24(%rbp),%eax
    361f:	85 c0                	test   %eax,%eax
    3621:	75 3a                	jne    365d <_ZL17reconfigureGlobalP12phFuncStruct+0x306>
    3623:	83 7d f8 00          	cmpl   $0x0,-0x8(%rbp)
    3627:	75 28                	jne    3651 <_ZL17reconfigureGlobalP12phFuncStruct+0x2fa>
    3629:	48 8b 45 a8          	mov    -0x58(%rbp),%rax
    362d:	48 8b 40 10          	mov    0x10(%rax),%rax
    3631:	48 8d 0d 41 6c 00 00 	lea    0x6c41(%rip),%rcx        # a279 <_fini+0xc6d>
    3638:	48 8d 15 51 6c 00 00 	lea    0x6c51(%rip),%rdx        # a290 <_fini+0xc84>
    363f:	be 01 00 00 00       	mov    $0x1,%esi
    3644:	48 89 c7             	mov    %rax,%rdi
    3647:	b8 00 00 00 00       	mov    $0x0,%eax
    364c:	e8 9f f5 ff ff       	callq  2bf0 <_Z16phLogFuncMessageP11phLogStruct11phLogType_tPKcz@plt>
    3651:	c7 45 fc 00 00 00 00 	movl   $0x0,-0x4(%rbp)
    3658:	e9 aa 00 00 00       	jmpq   3707 <_ZL17reconfigureGlobalP12phFuncStruct+0x3b0>
    365d:	8b 55 dc             	mov    -0x24(%rbp),%edx
    3660:	48 8b 45 a8          	mov    -0x58(%rbp),%rax
    3664:	89 90 58 40 00 00    	mov    %edx,0x4058(%rax)
    366a:	48 8b 45 a8          	mov    -0x58(%rbp),%rax
    366e:	48 8b 80 60 40 00 00 	mov    0x4060(%rax),%rax
    3675:	48 85 c0             	test   %rax,%rax
    3678:	74 13                	je     368d <_ZL17reconfigureGlobalP12phFuncStruct+0x336>
    367a:	48 8b 45 a8          	mov    -0x58(%rbp),%rax
    367e:	48 8b 80 60 40 00 00 	mov    0x4060(%rax),%rax
    3685:	48 89 c7             	mov    %rax,%rdi
    3688:	e8 83 f6 ff ff       	callq  2d10 <free@plt>
    368d:	8b 45 dc             	mov    -0x24(%rbp),%eax
    3690:	48 98                	cltq   
    3692:	48 c1 e0 03          	shl    $0x3,%rax
    3696:	48 89 c7             	mov    %rax,%rdi
    3699:	e8 02 f6 ff ff       	callq  2ca0 <malloc@plt>
    369e:	48 89 c2             	mov    %rax,%rdx
    36a1:	48 8b 45 a8          	mov    -0x58(%rbp),%rax
    36a5:	48 89 90 60 40 00 00 	mov    %rdx,0x4060(%rax)
    36ac:	c7 45 e0 00 00 00 00 	movl   $0x0,-0x20(%rbp)
    36b3:	eb 48                	jmp    36fd <_ZL17reconfigureGlobalP12phFuncStruct+0x3a6>
    36b5:	48 8b 45 a8          	mov    -0x58(%rbp),%rax
    36b9:	48 8b 80 60 40 00 00 	mov    0x4060(%rax),%rax
    36c0:	8b 55 e0             	mov    -0x20(%rbp),%edx
    36c3:	48 63 d2             	movslq %edx,%rdx
    36c6:	48 c1 e2 03          	shl    $0x3,%rdx
    36ca:	48 8d 0c 10          	lea    (%rax,%rdx,1),%rcx
    36ce:	48 8b 45 a8          	mov    -0x58(%rbp),%rax
    36d2:	48 8b 40 18          	mov    0x18(%rax),%rax
    36d6:	48 8d 55 e0          	lea    -0x20(%rbp),%rdx
    36da:	49 89 c8             	mov    %rcx,%r8
    36dd:	48 89 d1             	mov    %rdx,%rcx
    36e0:	ba 01 00 00 00       	mov    $0x1,%edx
    36e5:	48 8d 35 8d 6b 00 00 	lea    0x6b8d(%rip),%rsi        # a279 <_fini+0xc6d>
    36ec:	48 89 c7             	mov    %rax,%rdi
    36ef:	e8 4c f5 ff ff       	callq  2c40 <_Z16phConfConfStringP16phConfConfStructPKciPiPS2_@plt>
    36f4:	8b 45 e0             	mov    -0x20(%rbp),%eax
    36f7:	83 c0 01             	add    $0x1,%eax
    36fa:	89 45 e0             	mov    %eax,-0x20(%rbp)
    36fd:	8b 55 e0             	mov    -0x20(%rbp),%edx
    3700:	8b 45 dc             	mov    -0x24(%rbp),%eax
    3703:	39 c2                	cmp    %eax,%edx
    3705:	7c ae                	jl     36b5 <_ZL17reconfigureGlobalP12phFuncStruct+0x35e>
    3707:	48 8b 45 a8          	mov    -0x58(%rbp),%rax
    370b:	48 8b 40 18          	mov    0x18(%rax),%rax
    370f:	48 8d 35 c0 6b 00 00 	lea    0x6bc0(%rip),%rsi        # a2d6 <_fini+0xcca>
    3716:	48 89 c7             	mov    %rax,%rdi
    3719:	e8 02 f5 ff ff       	callq  2c20 <_Z15phConfConfIfDefP16phConfConfStructPKc@plt>
    371e:	89 45 f8             	mov    %eax,-0x8(%rbp)
    3721:	83 7d f8 00          	cmpl   $0x0,-0x8(%rbp)
    3725:	75 2b                	jne    3752 <_ZL17reconfigureGlobalP12phFuncStruct+0x3fb>
    3727:	48 8b 45 a8          	mov    -0x58(%rbp),%rax
    372b:	48 8b 40 18          	mov    0x18(%rax),%rax
    372f:	48 8d 55 c8          	lea    -0x38(%rbp),%rdx
    3733:	49 89 d0             	mov    %rdx,%r8
    3736:	b9 00 00 00 00       	mov    $0x0,%ecx
    373b:	ba 00 00 00 00       	mov    $0x0,%edx
    3740:	48 8d 35 8f 6b 00 00 	lea    0x6b8f(%rip),%rsi        # a2d6 <_fini+0xcca>
    3747:	48 89 c7             	mov    %rax,%rdi
    374a:	e8 a1 f5 ff ff       	callq  2cf0 <_Z16phConfConfNumberP16phConfConfStructPKciPiPd@plt>
    374f:	89 45 f8             	mov    %eax,-0x8(%rbp)
    3752:	83 7d f8 00          	cmpl   $0x0,-0x8(%rbp)
    3756:	75 20                	jne    3778 <_ZL17reconfigureGlobalP12phFuncStruct+0x421>
    3758:	f2 0f 10 4d c8       	movsd  -0x38(%rbp),%xmm1
    375d:	f2 0f 10 05 03 76 00 	movsd  0x7603(%rip),%xmm0        # ad68 <_fini+0x175c>
    3764:	00 
    3765:	f2 0f 59 c1          	mulsd  %xmm1,%xmm0
    3769:	f2 48 0f 2c d0       	cvttsd2si %xmm0,%rdx
    376e:	48 8b 45 a8          	mov    -0x58(%rbp),%rax
    3772:	48 89 50 48          	mov    %rdx,0x48(%rax)
    3776:	eb 0c                	jmp    3784 <_ZL17reconfigureGlobalP12phFuncStruct+0x42d>
    3778:	48 8b 45 a8          	mov    -0x58(%rbp),%rax
    377c:	48 c7 40 48 40 4b 4c 	movq   $0x4c4b40,0x48(%rax)
    3783:	00 
    3784:	48 c7 45 d0 00 00 00 	movq   $0x0,-0x30(%rbp)
    378b:	00 
    378c:	48 8b 45 a8          	mov    -0x58(%rbp),%rax
    3790:	48 8b 40 18          	mov    0x18(%rax),%rax
    3794:	48 8d 55 d0          	lea    -0x30(%rbp),%rdx
    3798:	49 89 d0             	mov    %rdx,%r8
    379b:	b9 00 00 00 00       	mov    $0x0,%ecx
    37a0:	ba 00 00 00 00       	mov    $0x0,%edx
    37a5:	48 8d 35 3e 6b 00 00 	lea    0x6b3e(%rip),%rsi        # a2ea <_fini+0xcde>
    37ac:	48 89 c7             	mov    %rax,%rdi
    37af:	e8 8c f4 ff ff       	callq  2c40 <_Z16phConfConfStringP16phConfConfStructPKciPiPS2_@plt>
    37b4:	85 c0                	test   %eax,%eax
    37b6:	0f 95 c0             	setne  %al
    37b9:	84 c0                	test   %al,%al
    37bb:	74 07                	je     37c4 <_ZL17reconfigureGlobalP12phFuncStruct+0x46d>
    37bd:	c7 45 fc 00 00 00 00 	movl   $0x0,-0x4(%rbp)
    37c4:	48 8b 45 d0          	mov    -0x30(%rbp),%rax
    37c8:	48 8d 35 2a 6b 00 00 	lea    0x6b2a(%rip),%rsi        # a2f9 <_fini+0xced>
    37cf:	48 89 c7             	mov    %rax,%rdi
    37d2:	e8 99 f4 ff ff       	callq  2c70 <strcasecmp@plt>
    37d7:	85 c0                	test   %eax,%eax
    37d9:	75 13                	jne    37ee <_ZL17reconfigureGlobalP12phFuncStruct+0x497>
    37db:	48 8b 45 a8          	mov    -0x58(%rbp),%rax
    37df:	c7 80 78 40 00 00 02 	movl   $0x2,0x4078(%rax)
    37e6:	00 00 00 
    37e9:	e9 ae 00 00 00       	jmpq   389c <_ZL17reconfigureGlobalP12phFuncStruct+0x545>
    37ee:	48 8b 45 d0          	mov    -0x30(%rbp),%rax
    37f2:	48 8d 35 05 6b 00 00 	lea    0x6b05(%rip),%rsi        # a2fe <_fini+0xcf2>
    37f9:	48 89 c7             	mov    %rax,%rdi
    37fc:	e8 6f f4 ff ff       	callq  2c70 <strcasecmp@plt>
    3801:	85 c0                	test   %eax,%eax
    3803:	75 13                	jne    3818 <_ZL17reconfigureGlobalP12phFuncStruct+0x4c1>
    3805:	48 8b 45 a8          	mov    -0x58(%rbp),%rax
    3809:	c7 80 78 40 00 00 04 	movl   $0x4,0x4078(%rax)
    3810:	00 00 00 
    3813:	e9 84 00 00 00       	jmpq   389c <_ZL17reconfigureGlobalP12phFuncStruct+0x545>
    3818:	48 8b 45 d0          	mov    -0x30(%rbp),%rax
    381c:	48 8d 35 df 6a 00 00 	lea    0x6adf(%rip),%rsi        # a302 <_fini+0xcf6>
    3823:	48 89 c7             	mov    %rax,%rdi
    3826:	e8 45 f4 ff ff       	callq  2c70 <strcasecmp@plt>
    382b:	85 c0                	test   %eax,%eax
    382d:	75 10                	jne    383f <_ZL17reconfigureGlobalP12phFuncStruct+0x4e8>
    382f:	48 8b 45 a8          	mov    -0x58(%rbp),%rax
    3833:	c7 80 78 40 00 00 05 	movl   $0x5,0x4078(%rax)
    383a:	00 00 00 
    383d:	eb 5d                	jmp    389c <_ZL17reconfigureGlobalP12phFuncStruct+0x545>
    383f:	48 8b 45 d0          	mov    -0x30(%rbp),%rax
    3843:	48 8d 35 c3 6a 00 00 	lea    0x6ac3(%rip),%rsi        # a30d <_fini+0xd01>
    384a:	48 89 c7             	mov    %rax,%rdi
    384d:	e8 1e f4 ff ff       	callq  2c70 <strcasecmp@plt>
    3852:	85 c0                	test   %eax,%eax
    3854:	75 10                	jne    3866 <_ZL17reconfigureGlobalP12phFuncStruct+0x50f>
    3856:	48 8b 45 a8          	mov    -0x58(%rbp),%rax
    385a:	c7 80 78 40 00 00 03 	movl   $0x3,0x4078(%rax)
    3861:	00 00 00 
    3864:	eb 36                	jmp    389c <_ZL17reconfigureGlobalP12phFuncStruct+0x545>
    3866:	48 8b 45 a8          	mov    -0x58(%rbp),%rax
    386a:	48 8b 40 10          	mov    0x10(%rax),%rax
    386e:	4c 8d 05 a3 6a 00 00 	lea    0x6aa3(%rip),%r8        # a318 <_fini+0xd0c>
    3875:	48 8d 0d 6e 6a 00 00 	lea    0x6a6e(%rip),%rcx        # a2ea <_fini+0xcde>
    387c:	48 8d 15 b5 6a 00 00 	lea    0x6ab5(%rip),%rdx        # a338 <_fini+0xd2c>
    3883:	be 01 00 00 00       	mov    $0x1,%esi
    3888:	48 89 c7             	mov    %rax,%rdi
    388b:	b8 00 00 00 00       	mov    $0x0,%eax
    3890:	e8 5b f3 ff ff       	callq  2bf0 <_Z16phLogFuncMessageP11phLogStruct11phLogType_tPKcz@plt>
    3895:	c7 45 fc 00 00 00 00 	movl   $0x0,-0x4(%rbp)
    389c:	83 7d fc 00          	cmpl   $0x0,-0x4(%rbp)
    38a0:	74 67                	je     3909 <_ZL17reconfigureGlobalP12phFuncStruct+0x5b2>
    38a2:	48 8b 45 a8          	mov    -0x58(%rbp),%rax
    38a6:	8b 80 78 40 00 00    	mov    0x4078(%rax),%eax
    38ac:	83 f8 03             	cmp    $0x3,%eax
    38af:	74 36                	je     38e7 <_ZL17reconfigureGlobalP12phFuncStruct+0x590>
    38b1:	83 f8 03             	cmp    $0x3,%eax
    38b4:	7f 07                	jg     38bd <_ZL17reconfigureGlobalP12phFuncStruct+0x566>
    38b6:	83 f8 02             	cmp    $0x2,%eax
    38b9:	74 0e                	je     38c9 <_ZL17reconfigureGlobalP12phFuncStruct+0x572>
    38bb:	eb 4c                	jmp    3909 <_ZL17reconfigureGlobalP12phFuncStruct+0x5b2>
    38bd:	83 f8 04             	cmp    $0x4,%eax
    38c0:	74 43                	je     3905 <_ZL17reconfigureGlobalP12phFuncStruct+0x5ae>
    38c2:	83 f8 05             	cmp    $0x5,%eax
    38c5:	74 41                	je     3908 <_ZL17reconfigureGlobalP12phFuncStruct+0x5b1>
    38c7:	eb 40                	jmp    3909 <_ZL17reconfigureGlobalP12phFuncStruct+0x5b2>
    38c9:	48 8b 45 a8          	mov    -0x58(%rbp),%rax
    38cd:	48 89 c7             	mov    %rax,%rdi
    38d0:	e8 fb f4 ff ff       	callq  2dd0 <_Z21phFuncGpibReconfigureP12phFuncStruct@plt>
    38d5:	85 c0                	test   %eax,%eax
    38d7:	0f 94 c0             	sete   %al
    38da:	84 c0                	test   %al,%al
    38dc:	74 07                	je     38e5 <_ZL17reconfigureGlobalP12phFuncStruct+0x58e>
    38de:	c7 45 fc 00 00 00 00 	movl   $0x0,-0x4(%rbp)
    38e5:	eb 22                	jmp    3909 <_ZL17reconfigureGlobalP12phFuncStruct+0x5b2>
    38e7:	48 8b 45 a8          	mov    -0x58(%rbp),%rax
    38eb:	48 89 c7             	mov    %rax,%rdi
    38ee:	e8 2a fa ff ff       	callq  331d <_ZL22phFuncRS232ReconfigureP12phFuncStruct>
    38f3:	85 c0                	test   %eax,%eax
    38f5:	0f 94 c0             	sete   %al
    38f8:	84 c0                	test   %al,%al
    38fa:	74 07                	je     3903 <_ZL17reconfigureGlobalP12phFuncStruct+0x5ac>
    38fc:	c7 45 fc 00 00 00 00 	movl   $0x0,-0x4(%rbp)
    3903:	eb 04                	jmp    3909 <_ZL17reconfigureGlobalP12phFuncStruct+0x5b2>
    3905:	90                   	nop
    3906:	eb 01                	jmp    3909 <_ZL17reconfigureGlobalP12phFuncStruct+0x5b2>
    3908:	90                   	nop
    3909:	48 8b 45 a8          	mov    -0x58(%rbp),%rax
    390d:	48 8b 40 18          	mov    0x18(%rax),%rax
    3911:	48 8d 35 b4 6a 00 00 	lea    0x6ab4(%rip),%rsi        # a3cc <_fini+0xdc0>
    3918:	48 89 c7             	mov    %rax,%rdi
    391b:	e8 00 f3 ff ff       	callq  2c20 <_Z15phConfConfIfDefP16phConfConfStructPKc@plt>
    3920:	85 c0                	test   %eax,%eax
    3922:	0f 94 c0             	sete   %al
    3925:	84 c0                	test   %al,%al
    3927:	74 53                	je     397c <_ZL17reconfigureGlobalP12phFuncStruct+0x625>
    3929:	48 8b 45 a8          	mov    -0x58(%rbp),%rax
    392d:	48 8b 40 18          	mov    0x18(%rax),%rax
    3931:	48 8d 55 c0          	lea    -0x40(%rbp),%rdx
    3935:	49 89 d0             	mov    %rdx,%r8
    3938:	b9 00 00 00 00       	mov    $0x0,%ecx
    393d:	ba 00 00 00 00       	mov    $0x0,%edx
    3942:	48 8d 35 83 6a 00 00 	lea    0x6a83(%rip),%rsi        # a3cc <_fini+0xdc0>
    3949:	48 89 c7             	mov    %rax,%rdi
    394c:	e8 ef f2 ff ff       	callq  2c40 <_Z16phConfConfStringP16phConfConfStructPKciPiPS2_@plt>
    3951:	89 45 f8             	mov    %eax,-0x8(%rbp)
    3954:	83 7d f8 00          	cmpl   $0x0,-0x8(%rbp)
    3958:	75 22                	jne    397c <_ZL17reconfigureGlobalP12phFuncStruct+0x625>
    395a:	48 8b 45 c0          	mov    -0x40(%rbp),%rax
    395e:	48 8d 35 79 6a 00 00 	lea    0x6a79(%rip),%rsi        # a3de <_fini+0xdd2>
    3965:	48 89 c7             	mov    %rax,%rdi
    3968:	e8 03 f3 ff ff       	callq  2c70 <strcasecmp@plt>
    396d:	85 c0                	test   %eax,%eax
    396f:	75 0b                	jne    397c <_ZL17reconfigureGlobalP12phFuncStruct+0x625>
    3971:	48 8b 45 a8          	mov    -0x58(%rbp),%rax
    3975:	c7 40 30 01 00 00 00 	movl   $0x1,0x30(%rax)
    397c:	48 8b 45 a8          	mov    -0x58(%rbp),%rax
    3980:	48 8b 40 18          	mov    0x18(%rax),%rax
    3984:	48 8d 35 57 6a 00 00 	lea    0x6a57(%rip),%rsi        # a3e2 <_fini+0xdd6>
    398b:	48 89 c7             	mov    %rax,%rdi
    398e:	e8 8d f2 ff ff       	callq  2c20 <_Z15phConfConfIfDefP16phConfConfStructPKc@plt>
    3993:	85 c0                	test   %eax,%eax
    3995:	0f 94 c0             	sete   %al
    3998:	84 c0                	test   %al,%al
    399a:	74 53                	je     39ef <_ZL17reconfigureGlobalP12phFuncStruct+0x698>
    399c:	48 8b 45 a8          	mov    -0x58(%rbp),%rax
    39a0:	48 8b 40 18          	mov    0x18(%rax),%rax
    39a4:	48 8d 55 b8          	lea    -0x48(%rbp),%rdx
    39a8:	49 89 d0             	mov    %rdx,%r8
    39ab:	b9 00 00 00 00       	mov    $0x0,%ecx
    39b0:	ba 00 00 00 00       	mov    $0x0,%edx
    39b5:	48 8d 35 26 6a 00 00 	lea    0x6a26(%rip),%rsi        # a3e2 <_fini+0xdd6>
    39bc:	48 89 c7             	mov    %rax,%rdi
    39bf:	e8 7c f2 ff ff       	callq  2c40 <_Z16phConfConfStringP16phConfConfStructPKciPiPS2_@plt>
    39c4:	89 45 f8             	mov    %eax,-0x8(%rbp)
    39c7:	83 7d f8 00          	cmpl   $0x0,-0x8(%rbp)
    39cb:	75 22                	jne    39ef <_ZL17reconfigureGlobalP12phFuncStruct+0x698>
    39cd:	48 8b 45 b8          	mov    -0x48(%rbp),%rax
    39d1:	48 8d 35 1d 6a 00 00 	lea    0x6a1d(%rip),%rsi        # a3f5 <_fini+0xde9>
    39d8:	48 89 c7             	mov    %rax,%rdi
    39db:	e8 90 f2 ff ff       	callq  2c70 <strcasecmp@plt>
    39e0:	85 c0                	test   %eax,%eax
    39e2:	75 0b                	jne    39ef <_ZL17reconfigureGlobalP12phFuncStruct+0x698>
    39e4:	48 8b 45 a8          	mov    -0x58(%rbp),%rax
    39e8:	c7 40 34 01 00 00 00 	movl   $0x1,0x34(%rax)
    39ef:	8b 45 fc             	mov    -0x4(%rbp),%eax
    39f2:	c9                   	leaveq 
    39f3:	c3                   	retq   

00000000000039f4 <phFuncAvailable>:
    39f4:	55                   	push   %rbp
    39f5:	48 89 e5             	mov    %rsp,%rbp
    39f8:	c7 45 fc 00 00 00 00 	movl   $0x0,-0x4(%rbp)
    39ff:	83 4d fc 01          	orl    $0x1,-0x4(%rbp)
    3a03:	83 4d fc 02          	orl    $0x2,-0x4(%rbp)
    3a07:	83 4d fc 20          	orl    $0x20,-0x4(%rbp)
    3a0b:	83 4d fc 40          	orl    $0x40,-0x4(%rbp)
    3a0f:	81 4d fc 80 00 00 00 	orl    $0x80,-0x4(%rbp)
    3a16:	81 4d fc 00 08 00 00 	orl    $0x800,-0x4(%rbp)
    3a1d:	81 4d fc 00 00 10 00 	orl    $0x100000,-0x4(%rbp)
    3a24:	81 4d fc 00 00 08 00 	orl    $0x80000,-0x4(%rbp)
    3a2b:	81 4d fc 00 00 20 00 	orl    $0x200000,-0x4(%rbp)
    3a32:	81 4d fc 00 00 40 00 	orl    $0x400000,-0x4(%rbp)
    3a39:	8b 45 fc             	mov    -0x4(%rbp),%eax
    3a3c:	5d                   	pop    %rbp
    3a3d:	c3                   	retq   

0000000000003a3e <phFuncInit>:
    3a3e:	55                   	push   %rbp
    3a3f:	48 89 e5             	mov    %rsp,%rbp
    3a42:	53                   	push   %rbx
    3a43:	48 81 ec 98 04 00 00 	sub    $0x498,%rsp
    3a4a:	48 89 bd a8 fb ff ff 	mov    %rdi,-0x458(%rbp)
    3a51:	48 89 b5 a0 fb ff ff 	mov    %rsi,-0x460(%rbp)
    3a58:	48 89 95 98 fb ff ff 	mov    %rdx,-0x468(%rbp)
    3a5f:	48 89 8d 90 fb ff ff 	mov    %rcx,-0x470(%rbp)
    3a66:	4c 89 85 88 fb ff ff 	mov    %r8,-0x478(%rbp)
    3a6d:	4c 89 8d 80 fb ff ff 	mov    %r9,-0x480(%rbp)
    3a74:	c7 45 ec 00 00 00 00 	movl   $0x0,-0x14(%rbp)
    3a7b:	48 8d 05 7c 69 00 00 	lea    0x697c(%rip),%rax        # a3fe <_fini+0xdf2>
    3a82:	48 89 45 d8          	mov    %rax,-0x28(%rbp)
    3a86:	48 8d 05 71 69 00 00 	lea    0x6971(%rip),%rax        # a3fe <_fini+0xdf2>
    3a8d:	48 89 45 d0          	mov    %rax,-0x30(%rbp)
    3a91:	48 c7 45 b8 00 00 00 	movq   $0x0,-0x48(%rbp)
    3a98:	00 
    3a99:	48 83 bd a0 fb ff ff 	cmpq   $0x0,-0x460(%rbp)
    3aa0:	00 
    3aa1:	0f 84 b2 00 00 00    	je     3b59 <phFuncInit+0x11b>
    3aa7:	48 83 bd 98 fb ff ff 	cmpq   $0x0,-0x468(%rbp)
    3aae:	00 
    3aaf:	0f 84 a4 00 00 00    	je     3b59 <phFuncInit+0x11b>
    3ab5:	48 83 bd 90 fb ff ff 	cmpq   $0x0,-0x470(%rbp)
    3abc:	00 
    3abd:	0f 84 96 00 00 00    	je     3b59 <phFuncInit+0x11b>
    3ac3:	48 83 bd 88 fb ff ff 	cmpq   $0x0,-0x478(%rbp)
    3aca:	00 
    3acb:	0f 84 88 00 00 00    	je     3b59 <phFuncInit+0x11b>
    3ad1:	48 83 bd 80 fb ff ff 	cmpq   $0x0,-0x480(%rbp)
    3ad8:	00 
    3ad9:	74 7e                	je     3b59 <phFuncInit+0x11b>
    3adb:	48 8b 85 90 fb ff ff 	mov    -0x470(%rbp),%rax
    3ae2:	48 89 05 f7 9b 20 00 	mov    %rax,0x209bf7(%rip)        # 20d6e0 <_ZL8myLogger>
    3ae9:	48 8b 3d f0 9b 20 00 	mov    0x209bf0(%rip),%rdi        # 20d6e0 <_ZL8myLogger>
    3af0:	48 8b 05 e9 9b 20 00 	mov    0x209be9(%rip),%rax        # 20d6e0 <_ZL8myLogger>
    3af7:	48 8b b5 98 fb ff ff 	mov    -0x468(%rbp),%rsi
    3afe:	48 8b 95 a8 fb ff ff 	mov    -0x458(%rbp),%rdx
    3b05:	48 8b 8d 80 fb ff ff 	mov    -0x480(%rbp),%rcx
    3b0c:	48 89 4c 24 10       	mov    %rcx,0x10(%rsp)
    3b11:	48 8b 8d 88 fb ff ff 	mov    -0x478(%rbp),%rcx
    3b18:	48 89 4c 24 08       	mov    %rcx,0x8(%rsp)
    3b1d:	48 8b 8d 90 fb ff ff 	mov    -0x470(%rbp),%rcx
    3b24:	48 89 0c 24          	mov    %rcx,(%rsp)
    3b28:	49 89 f9             	mov    %rdi,%r9
    3b2b:	49 89 f0             	mov    %rsi,%r8
    3b2e:	48 89 d1             	mov    %rdx,%rcx
    3b31:	48 8d 15 c8 68 00 00 	lea    0x68c8(%rip),%rdx        # a400 <_fini+0xdf4>
    3b38:	be 03 00 00 00       	mov    $0x3,%esi
    3b3d:	48 89 c7             	mov    %rax,%rdi
    3b40:	b8 00 00 00 00       	mov    $0x0,%eax
    3b45:	e8 a6 f0 ff ff       	callq  2bf0 <_Z16phLogFuncMessageP11phLogStruct11phLogType_tPKcz@plt>
    3b4a:	8b 05 b4 a3 20 00    	mov    0x20a3b4(%rip),%eax        # 20df04 <_ZZ10phFuncInitE12isConfigured>
    3b50:	85 c0                	test   %eax,%eax
    3b52:	74 0f                	je     3b63 <phFuncInit+0x125>
    3b54:	e9 51 04 00 00       	jmpq   3faa <phFuncInit+0x56c>
    3b59:	b8 01 00 00 00       	mov    $0x1,%eax
    3b5e:	e9 35 05 00 00       	jmpq   4098 <phFuncInit+0x65a>
    3b63:	bf 48 61 00 00       	mov    $0x6148,%edi
    3b68:	e8 33 f1 ff ff       	callq  2ca0 <malloc@plt>
    3b6d:	48 89 05 94 a3 20 00 	mov    %rax,0x20a394(%rip)        # 20df08 <_ZZ10phFuncInitE5tmpId>
    3b74:	48 8b 05 8d a3 20 00 	mov    0x20a38d(%rip),%rax        # 20df08 <_ZZ10phFuncInitE5tmpId>
    3b7b:	48 85 c0             	test   %rax,%rax
    3b7e:	75 2a                	jne    3baa <phFuncInit+0x16c>
    3b80:	48 8b 05 59 9b 20 00 	mov    0x209b59(%rip),%rax        # 20d6e0 <_ZL8myLogger>
    3b87:	48 8d 15 92 68 00 00 	lea    0x6892(%rip),%rdx        # a420 <_fini+0xe14>
    3b8e:	be 00 00 00 00       	mov    $0x0,%esi
    3b93:	48 89 c7             	mov    %rax,%rdi
    3b96:	b8 00 00 00 00       	mov    $0x0,%eax
    3b9b:	e8 50 f0 ff ff       	callq  2bf0 <_Z16phLogFuncMessageP11phLogStruct11phLogType_tPKcz@plt>
    3ba0:	b8 04 00 00 00       	mov    $0x4,%eax
    3ba5:	e9 ee 04 00 00       	jmpq   4098 <phFuncInit+0x65a>
    3baa:	48 8b 05 57 a3 20 00 	mov    0x20a357(%rip),%rax        # 20df08 <_ZZ10phFuncInitE5tmpId>
    3bb1:	48 8b 15 50 a3 20 00 	mov    0x20a350(%rip),%rdx        # 20df08 <_ZZ10phFuncInitE5tmpId>
    3bb8:	48 89 10             	mov    %rdx,(%rax)
    3bbb:	48 8b 05 46 a3 20 00 	mov    0x20a346(%rip),%rax        # 20df08 <_ZZ10phFuncInitE5tmpId>
    3bc2:	48 8b 95 a0 fb ff ff 	mov    -0x460(%rbp),%rdx
    3bc9:	48 89 50 08          	mov    %rdx,0x8(%rax)
    3bcd:	48 8b 05 34 a3 20 00 	mov    0x20a334(%rip),%rax        # 20df08 <_ZZ10phFuncInitE5tmpId>
    3bd4:	48 8b 95 90 fb ff ff 	mov    -0x470(%rbp),%rdx
    3bdb:	48 89 50 10          	mov    %rdx,0x10(%rax)
    3bdf:	48 8b 05 22 a3 20 00 	mov    0x20a322(%rip),%rax        # 20df08 <_ZZ10phFuncInitE5tmpId>
    3be6:	48 8b 95 88 fb ff ff 	mov    -0x478(%rbp),%rdx
    3bed:	48 89 50 18          	mov    %rdx,0x18(%rax)
    3bf1:	48 8b 05 10 a3 20 00 	mov    0x20a310(%rip),%rax        # 20df08 <_ZZ10phFuncInitE5tmpId>
    3bf8:	48 8b 95 98 fb ff ff 	mov    -0x468(%rbp),%rdx
    3bff:	48 89 50 20          	mov    %rdx,0x20(%rax)
    3c03:	48 8b 05 fe a2 20 00 	mov    0x20a2fe(%rip),%rax        # 20df08 <_ZZ10phFuncInitE5tmpId>
    3c0a:	48 8b 95 80 fb ff ff 	mov    -0x480(%rbp),%rdx
    3c11:	48 89 50 28          	mov    %rdx,0x28(%rax)
    3c15:	48 8b 05 ec a2 20 00 	mov    0x20a2ec(%rip),%rax        # 20df08 <_ZZ10phFuncInitE5tmpId>
    3c1c:	c7 40 30 00 00 00 00 	movl   $0x0,0x30(%rax)
    3c23:	48 8b 05 de a2 20 00 	mov    0x20a2de(%rip),%rax        # 20df08 <_ZZ10phFuncInitE5tmpId>
    3c2a:	c7 40 34 00 00 00 00 	movl   $0x0,0x34(%rax)
    3c31:	48 8b 05 d0 a2 20 00 	mov    0x20a2d0(%rip),%rax        # 20df08 <_ZZ10phFuncInitE5tmpId>
    3c38:	c7 40 50 00 00 00 00 	movl   $0x0,0x50(%rax)
    3c3f:	48 8b 05 c2 a2 20 00 	mov    0x20a2c2(%rip),%rax        # 20df08 <_ZZ10phFuncInitE5tmpId>
    3c46:	c7 80 58 40 00 00 00 	movl   $0x0,0x4058(%rax)
    3c4d:	00 00 00 
    3c50:	48 8b 05 b1 a2 20 00 	mov    0x20a2b1(%rip),%rax        # 20df08 <_ZZ10phFuncInitE5tmpId>
    3c57:	48 c7 80 60 40 00 00 	movq   $0x0,0x4060(%rax)
    3c5e:	00 00 00 00 
    3c62:	48 8b 05 9f a2 20 00 	mov    0x20a29f(%rip),%rax        # 20df08 <_ZZ10phFuncInitE5tmpId>
    3c69:	c7 80 40 61 00 00 01 	movl   $0x1,0x6140(%rax)
    3c70:	00 00 00 
    3c73:	48 8b 05 8e a2 20 00 	mov    0x20a28e(%rip),%rax        # 20df08 <_ZZ10phFuncInitE5tmpId>
    3c7a:	48 89 c7             	mov    %rax,%rdi
    3c7d:	e8 2e f2 ff ff       	callq  2eb0 <_Z12phFuncTaInitP12phFuncStruct@plt>
    3c82:	48 8d 55 d8          	lea    -0x28(%rbp),%rdx
    3c86:	48 8b 85 88 fb ff ff 	mov    -0x478(%rbp),%rax
    3c8d:	49 89 d0             	mov    %rdx,%r8
    3c90:	b9 00 00 00 00       	mov    $0x0,%ecx
    3c95:	ba 00 00 00 00       	mov    $0x0,%edx
    3c9a:	48 8d 35 ad 67 00 00 	lea    0x67ad(%rip),%rsi        # a44e <_fini+0xe42>
    3ca1:	48 89 c7             	mov    %rax,%rdi
    3ca4:	e8 97 ef ff ff       	callq  2c40 <_Z16phConfConfStringP16phConfConfStructPKciPiPS2_@plt>
    3ca9:	48 8d 55 d0          	lea    -0x30(%rbp),%rdx
    3cad:	48 8b 85 88 fb ff ff 	mov    -0x478(%rbp),%rax
    3cb4:	49 89 d0             	mov    %rdx,%r8
    3cb7:	b9 00 00 00 00       	mov    $0x0,%ecx
    3cbc:	ba 00 00 00 00       	mov    $0x0,%edx
    3cc1:	48 8d 35 95 67 00 00 	lea    0x6795(%rip),%rsi        # a45d <_fini+0xe51>
    3cc8:	48 89 c7             	mov    %rax,%rdi
    3ccb:	e8 70 ef ff ff       	callq  2c40 <_Z16phConfConfStringP16phConfConfStructPKciPiPS2_@plt>
    3cd0:	48 8d 55 b8          	lea    -0x48(%rbp),%rdx
    3cd4:	48 8b 85 88 fb ff ff 	mov    -0x478(%rbp),%rax
    3cdb:	49 89 d0             	mov    %rdx,%r8
    3cde:	b9 00 00 00 00       	mov    $0x0,%ecx
    3ce3:	ba 00 00 00 00       	mov    $0x0,%edx
    3ce8:	48 8d 35 74 67 00 00 	lea    0x6774(%rip),%rsi        # a463 <_fini+0xe57>
    3cef:	48 89 c7             	mov    %rax,%rdi
    3cf2:	e8 49 ef ff ff       	callq  2c40 <_Z16phConfConfStringP16phConfConfStructPKciPiPS2_@plt>
    3cf7:	48 8d 85 b0 fb ff ff 	lea    -0x450(%rbp),%rax
    3cfe:	48 bb 41 53 4d 20 48 	movabs $0x646e6148204d5341,%rbx
    3d05:	61 6e 64 
    3d08:	48 89 18             	mov    %rbx,(%rax)
    3d0b:	48 bb 6c 65 72 20 44 	movabs $0x766972442072656c,%rbx
    3d12:	72 69 76 
    3d15:	48 89 58 08          	mov    %rbx,0x8(%rax)
    3d19:	48 bb 65 72 20 50 6c 	movabs $0x6967756c50207265,%rbx
    3d20:	75 67 69 
    3d23:	48 89 58 10          	mov    %rbx,0x10(%rax)
    3d27:	48 bb 6e 20 38 2e 36 	movabs $0x2e342e362e38206e,%rbx
    3d2e:	2e 34 2e 
    3d31:	48 89 58 18          	mov    %rbx,0x18(%rax)
    3d35:	66 c7 40 20 32 00    	movw   $0x32,0x20(%rax)
    3d3b:	48 8b 75 d0          	mov    -0x30(%rbp),%rsi
    3d3f:	48 8b 4d d8          	mov    -0x28(%rbp),%rcx
    3d43:	48 8b 05 96 99 20 00 	mov    0x209996(%rip),%rax        # 20d6e0 <_ZL8myLogger>
    3d4a:	48 8d 95 b0 fb ff ff 	lea    -0x450(%rbp),%rdx
    3d51:	48 89 74 24 10       	mov    %rsi,0x10(%rsp)
    3d56:	48 8d 35 00 67 00 00 	lea    0x6700(%rip),%rsi        # a45d <_fini+0xe51>
    3d5d:	48 89 74 24 08       	mov    %rsi,0x8(%rsp)
    3d62:	48 89 0c 24          	mov    %rcx,(%rsp)
    3d66:	4c 8d 0d e1 66 00 00 	lea    0x66e1(%rip),%r9        # a44e <_fini+0xe42>
    3d6d:	4c 8d 05 fb 66 00 00 	lea    0x66fb(%rip),%r8        # a46f <_fini+0xe63>
    3d74:	48 89 d1             	mov    %rdx,%rcx
    3d77:	48 8d 15 12 67 00 00 	lea    0x6712(%rip),%rdx        # a490 <_fini+0xe84>
    3d7e:	be 04 00 00 00       	mov    $0x4,%esi
    3d83:	48 89 c7             	mov    %rax,%rdi
    3d86:	b8 00 00 00 00       	mov    $0x0,%eax
    3d8b:	e8 60 ee ff ff       	callq  2bf0 <_Z16phLogFuncMessageP11phLogStruct11phLogType_tPKcz@plt>
    3d90:	48 8b 45 b8          	mov    -0x48(%rbp),%rax
    3d94:	48 8d 35 53 67 00 00 	lea    0x6753(%rip),%rsi        # a4ee <_fini+0xee2>
    3d9b:	48 89 c7             	mov    %rax,%rdi
    3d9e:	e8 cd ee ff ff       	callq  2c70 <strcasecmp@plt>
    3da3:	85 c0                	test   %eax,%eax
    3da5:	75 09                	jne    3db0 <phFuncInit+0x372>
    3da7:	c7 45 ec 00 00 00 00 	movl   $0x0,-0x14(%rbp)
    3dae:	eb 4a                	jmp    3dfa <phFuncInit+0x3bc>
    3db0:	48 8b 45 b8          	mov    -0x48(%rbp),%rax
    3db4:	48 8d 35 3b 67 00 00 	lea    0x673b(%rip),%rsi        # a4f6 <_fini+0xeea>
    3dbb:	48 89 c7             	mov    %rax,%rdi
    3dbe:	e8 ad ee ff ff       	callq  2c70 <strcasecmp@plt>
    3dc3:	85 c0                	test   %eax,%eax
    3dc5:	75 09                	jne    3dd0 <phFuncInit+0x392>
    3dc7:	c7 45 ec 01 00 00 00 	movl   $0x1,-0x14(%rbp)
    3dce:	eb 2a                	jmp    3dfa <phFuncInit+0x3bc>
    3dd0:	48 8b 45 b8          	mov    -0x48(%rbp),%rax
    3dd4:	48 8d 35 2b 67 00 00 	lea    0x672b(%rip),%rsi        # a506 <_fini+0xefa>
    3ddb:	48 89 c7             	mov    %rax,%rdi
    3dde:	e8 8d ee ff ff       	callq  2c70 <strcasecmp@plt>
    3de3:	85 c0                	test   %eax,%eax
    3de5:	75 09                	jne    3df0 <phFuncInit+0x3b2>
    3de7:	c7 45 ec 02 00 00 00 	movl   $0x2,-0x14(%rbp)
    3dee:	eb 0a                	jmp    3dfa <phFuncInit+0x3bc>
    3df0:	b8 01 00 00 00       	mov    $0x1,%eax
    3df5:	e9 9e 02 00 00       	jmpq   4098 <phFuncInit+0x65a>
    3dfa:	48 8b 05 07 a1 20 00 	mov    0x20a107(%rip),%rax        # 20df08 <_ZZ10phFuncInitE5tmpId>
    3e01:	8b 55 ec             	mov    -0x14(%rbp),%edx
    3e04:	89 90 68 40 00 00    	mov    %edx,0x4068(%rax)
    3e0a:	48 8d 55 c0          	lea    -0x40(%rbp),%rdx
    3e0e:	48 8d 45 c8          	lea    -0x38(%rbp),%rax
    3e12:	48 89 d6             	mov    %rdx,%rsi
    3e15:	48 89 c7             	mov    %rax,%rdi
    3e18:	e8 83 f1 ff ff       	callq  2fa0 <_Z18phFuncPredefModelsPPcPP8modelDef@plt>
    3e1d:	48 8b 55 d8          	mov    -0x28(%rbp),%rdx
    3e21:	48 8b 45 c8          	mov    -0x38(%rbp),%rax
    3e25:	48 89 d6             	mov    %rdx,%rsi
    3e28:	48 89 c7             	mov    %rax,%rdi
    3e2b:	e8 e0 f0 ff ff       	callq  2f10 <strcmp@plt>
    3e30:	85 c0                	test   %eax,%eax
    3e32:	74 38                	je     3e6c <phFuncInit+0x42e>
    3e34:	48 8b 4d c8          	mov    -0x38(%rbp),%rcx
    3e38:	48 8b 55 d8          	mov    -0x28(%rbp),%rdx
    3e3c:	48 8b 05 9d 98 20 00 	mov    0x20989d(%rip),%rax        # 20d6e0 <_ZL8myLogger>
    3e43:	49 89 c8             	mov    %rcx,%r8
    3e46:	48 89 d1             	mov    %rdx,%rcx
    3e49:	48 8d 15 c8 66 00 00 	lea    0x66c8(%rip),%rdx        # a518 <_fini+0xf0c>
    3e50:	be 01 00 00 00       	mov    $0x1,%esi
    3e55:	48 89 c7             	mov    %rax,%rdi
    3e58:	b8 00 00 00 00       	mov    $0x0,%eax
    3e5d:	e8 8e ed ff ff       	callq  2bf0 <_Z16phLogFuncMessageP11phLogStruct11phLogType_tPKcz@plt>
    3e62:	b8 05 00 00 00       	mov    $0x5,%eax
    3e67:	e9 2c 02 00 00       	jmpq   4098 <phFuncInit+0x65a>
    3e6c:	c7 45 e8 00 00 00 00 	movl   $0x0,-0x18(%rbp)
    3e73:	eb 04                	jmp    3e79 <phFuncInit+0x43b>
    3e75:	83 45 e8 01          	addl   $0x1,-0x18(%rbp)
    3e79:	48 8b 45 c0          	mov    -0x40(%rbp),%rax
    3e7d:	8b 55 e8             	mov    -0x18(%rbp),%edx
    3e80:	48 63 d2             	movslq %edx,%rdx
    3e83:	48 c1 e2 04          	shl    $0x4,%rdx
    3e87:	48 01 d0             	add    %rdx,%rax
    3e8a:	8b 00                	mov    (%rax),%eax
    3e8c:	83 f8 01             	cmp    $0x1,%eax
    3e8f:	74 50                	je     3ee1 <phFuncInit+0x4a3>
    3e91:	48 8b 45 c0          	mov    -0x40(%rbp),%rax
    3e95:	8b 55 e8             	mov    -0x18(%rbp),%edx
    3e98:	48 63 d2             	movslq %edx,%rdx
    3e9b:	48 c1 e2 04          	shl    $0x4,%rdx
    3e9f:	48 01 d0             	add    %rdx,%rax
    3ea2:	48 8b 40 08          	mov    0x8(%rax),%rax
    3ea6:	48 8d 35 c5 66 00 00 	lea    0x66c5(%rip),%rsi        # a572 <_fini+0xf66>
    3ead:	48 89 c7             	mov    %rax,%rdi
    3eb0:	e8 5b f0 ff ff       	callq  2f10 <strcmp@plt>
    3eb5:	85 c0                	test   %eax,%eax
    3eb7:	74 28                	je     3ee1 <phFuncInit+0x4a3>
    3eb9:	48 8b 55 d0          	mov    -0x30(%rbp),%rdx
    3ebd:	48 8b 45 c0          	mov    -0x40(%rbp),%rax
    3ec1:	8b 4d e8             	mov    -0x18(%rbp),%ecx
    3ec4:	48 63 c9             	movslq %ecx,%rcx
    3ec7:	48 c1 e1 04          	shl    $0x4,%rcx
    3ecb:	48 01 c8             	add    %rcx,%rax
    3ece:	48 8b 40 08          	mov    0x8(%rax),%rax
    3ed2:	48 89 d6             	mov    %rdx,%rsi
    3ed5:	48 89 c7             	mov    %rax,%rdi
    3ed8:	e8 33 f0 ff ff       	callq  2f10 <strcmp@plt>
    3edd:	85 c0                	test   %eax,%eax
    3edf:	75 94                	jne    3e75 <phFuncInit+0x437>
    3ee1:	48 8b 45 c0          	mov    -0x40(%rbp),%rax
    3ee5:	8b 55 e8             	mov    -0x18(%rbp),%edx
    3ee8:	48 63 d2             	movslq %edx,%rdx
    3eeb:	48 c1 e2 04          	shl    $0x4,%rdx
    3eef:	48 01 d0             	add    %rdx,%rax
    3ef2:	8b 00                	mov    (%rax),%eax
    3ef4:	83 f8 01             	cmp    $0x1,%eax
    3ef7:	75 31                	jne    3f2a <phFuncInit+0x4ec>
    3ef9:	48 8b 55 d0          	mov    -0x30(%rbp),%rdx
    3efd:	48 8b 05 dc 97 20 00 	mov    0x2097dc(%rip),%rax        # 20d6e0 <_ZL8myLogger>
    3f04:	48 89 d1             	mov    %rdx,%rcx
    3f07:	48 8d 15 6a 66 00 00 	lea    0x666a(%rip),%rdx        # a578 <_fini+0xf6c>
    3f0e:	be 01 00 00 00       	mov    $0x1,%esi
    3f13:	48 89 c7             	mov    %rax,%rdi
    3f16:	b8 00 00 00 00       	mov    $0x0,%eax
    3f1b:	e8 d0 ec ff ff       	callq  2bf0 <_Z16phLogFuncMessageP11phLogStruct11phLogType_tPKcz@plt>
    3f20:	b8 05 00 00 00       	mov    $0x5,%eax
    3f25:	e9 6e 01 00 00       	jmpq   4098 <phFuncInit+0x65a>
    3f2a:	48 8b 05 d7 9f 20 00 	mov    0x209fd7(%rip),%rax        # 20df08 <_ZZ10phFuncInitE5tmpId>
    3f31:	48 8b 55 c0          	mov    -0x40(%rbp),%rdx
    3f35:	8b 4d e8             	mov    -0x18(%rbp),%ecx
    3f38:	48 63 c9             	movslq %ecx,%rcx
    3f3b:	48 c1 e1 04          	shl    $0x4,%rcx
    3f3f:	48 01 ca             	add    %rcx,%rdx
    3f42:	8b 12                	mov    (%rdx),%edx
    3f44:	89 50 38             	mov    %edx,0x38(%rax)
    3f47:	48 8b 1d ba 9f 20 00 	mov    0x209fba(%rip),%rbx        # 20df08 <_ZZ10phFuncInitE5tmpId>
    3f4e:	48 8b 45 d0          	mov    -0x30(%rbp),%rax
    3f52:	48 89 c7             	mov    %rax,%rdi
    3f55:	e8 96 ef ff ff       	callq  2ef0 <strdup@plt>
    3f5a:	48 89 43 40          	mov    %rax,0x40(%rbx)
    3f5e:	48 8b 05 a3 9f 20 00 	mov    0x209fa3(%rip),%rax        # 20df08 <_ZZ10phFuncInitE5tmpId>
    3f65:	48 89 c7             	mov    %rax,%rdi
    3f68:	e8 ea f3 ff ff       	callq  3357 <_ZL17reconfigureGlobalP12phFuncStruct>
    3f6d:	85 c0                	test   %eax,%eax
    3f6f:	0f 94 c0             	sete   %al
    3f72:	84 c0                	test   %al,%al
    3f74:	74 2a                	je     3fa0 <phFuncInit+0x562>
    3f76:	48 8b 05 63 97 20 00 	mov    0x209763(%rip),%rax        # 20d6e0 <_ZL8myLogger>
    3f7d:	48 8d 15 44 66 00 00 	lea    0x6644(%rip),%rdx        # a5c8 <_fini+0xfbc>
    3f84:	be 01 00 00 00       	mov    $0x1,%esi
    3f89:	48 89 c7             	mov    %rax,%rdi
    3f8c:	b8 00 00 00 00       	mov    $0x0,%eax
    3f91:	e8 5a ec ff ff       	callq  2bf0 <_Z16phLogFuncMessageP11phLogStruct11phLogType_tPKcz@plt>
    3f96:	b8 05 00 00 00       	mov    $0x5,%eax
    3f9b:	e9 f8 00 00 00       	jmpq   4098 <phFuncInit+0x65a>
    3fa0:	c7 05 5a 9f 20 00 01 	movl   $0x1,0x209f5a(%rip)        # 20df04 <_ZZ10phFuncInitE12isConfigured>
    3fa7:	00 00 00 
    3faa:	48 8b 15 57 9f 20 00 	mov    0x209f57(%rip),%rdx        # 20df08 <_ZZ10phFuncInitE5tmpId>
    3fb1:	48 8b 85 a8 fb ff ff 	mov    -0x458(%rbp),%rax
    3fb8:	48 89 10             	mov    %rdx,(%rax)
    3fbb:	48 8b 05 46 9f 20 00 	mov    0x209f46(%rip),%rax        # 20df08 <_ZZ10phFuncInitE5tmpId>
    3fc2:	be 01 00 00 00       	mov    $0x1,%esi
    3fc7:	48 89 c7             	mov    %rax,%rdi
    3fca:	e8 96 f1 ff ff       	callq  3165 <_ZL12RememberCallP12phFuncStruct20phFuncAvailability_t>
    3fcf:	48 8b 05 32 9f 20 00 	mov    0x209f32(%rip),%rax        # 20df08 <_ZZ10phFuncInitE5tmpId>
    3fd6:	8b 40 30             	mov    0x30(%rax),%eax
    3fd9:	85 c0                	test   %eax,%eax
    3fdb:	74 22                	je     3fff <phFuncInit+0x5c1>
    3fdd:	48 8b 05 fc 96 20 00 	mov    0x2096fc(%rip),%rax        # 20d6e0 <_ZL8myLogger>
    3fe4:	48 8d 15 25 66 00 00 	lea    0x6625(%rip),%rdx        # a610 <_fini+0x1004>
    3feb:	be 05 00 00 00       	mov    $0x5,%esi
    3ff0:	48 89 c7             	mov    %rax,%rdi
    3ff3:	b8 00 00 00 00       	mov    $0x0,%eax
    3ff8:	e8 f3 eb ff ff       	callq  2bf0 <_Z16phLogFuncMessageP11phLogStruct11phLogType_tPKcz@plt>
    3ffd:	eb 2e                	jmp    402d <phFuncInit+0x5ef>
    3fff:	48 8b 05 02 9f 20 00 	mov    0x209f02(%rip),%rax        # 20df08 <_ZZ10phFuncInitE5tmpId>
    4006:	8b 40 34             	mov    0x34(%rax),%eax
    4009:	85 c0                	test   %eax,%eax
    400b:	74 27                	je     4034 <phFuncInit+0x5f6>
    400d:	48 8b 05 cc 96 20 00 	mov    0x2096cc(%rip),%rax        # 20d6e0 <_ZL8myLogger>
    4014:	48 8d 15 2d 66 00 00 	lea    0x662d(%rip),%rdx        # a648 <_fini+0x103c>
    401b:	be 05 00 00 00       	mov    $0x5,%esi
    4020:	48 89 c7             	mov    %rax,%rdi
    4023:	b8 00 00 00 00       	mov    $0x0,%eax
    4028:	e8 c3 eb ff ff       	callq  2bf0 <_Z16phLogFuncMessageP11phLogStruct11phLogType_tPKcz@plt>
    402d:	b8 01 00 00 00       	mov    $0x1,%eax
    4032:	eb 05                	jmp    4039 <phFuncInit+0x5fb>
    4034:	b8 00 00 00 00       	mov    $0x0,%eax
    4039:	84 c0                	test   %al,%al
    403b:	74 4c                	je     4089 <phFuncInit+0x64b>
    403d:	48 8b 05 a4 96 20 00 	mov    0x2096a4(%rip),%rax        # 20d6e8 <_ZL17dummyReturnValues>
    4044:	48 85 c0             	test   %rax,%rax
    4047:	74 33                	je     407c <phFuncInit+0x63e>
    4049:	8b 15 a5 96 20 00    	mov    0x2096a5(%rip),%edx        # 20d6f4 <_ZL16dummyReturnIndex>
    404f:	8b 05 9b 96 20 00    	mov    0x20969b(%rip),%eax        # 20d6f0 <_ZL16dummyReturnCount>
    4055:	39 c2                	cmp    %eax,%edx
    4057:	7d 23                	jge    407c <phFuncInit+0x63e>
    4059:	48 8b 0d 88 96 20 00 	mov    0x209688(%rip),%rcx        # 20d6e8 <_ZL17dummyReturnValues>
    4060:	8b 05 8e 96 20 00    	mov    0x20968e(%rip),%eax        # 20d6f4 <_ZL16dummyReturnIndex>
    4066:	8d 50 01             	lea    0x1(%rax),%edx
    4069:	89 15 85 96 20 00    	mov    %edx,0x209685(%rip)        # 20d6f4 <_ZL16dummyReturnIndex>
    406f:	48 98                	cltq   
    4071:	48 c1 e0 02          	shl    $0x2,%rax
    4075:	48 01 c8             	add    %rcx,%rax
    4078:	8b 00                	mov    (%rax),%eax
    407a:	eb 05                	jmp    4081 <phFuncInit+0x643>
    407c:	b8 00 00 00 00       	mov    $0x0,%eax
    4081:	89 45 e4             	mov    %eax,-0x1c(%rbp)
    4084:	8b 45 e4             	mov    -0x1c(%rbp),%eax
    4087:	eb 0f                	jmp    4098 <phFuncInit+0x65a>
    4089:	48 8b 05 78 9e 20 00 	mov    0x209e78(%rip),%rax        # 20df08 <_ZZ10phFuncInitE5tmpId>
    4090:	48 89 c7             	mov    %rax,%rdi
    4093:	e8 c8 ec ff ff       	callq  2d60 <_Z11privateInitP12phFuncStruct@plt>
    4098:	48 81 c4 98 04 00 00 	add    $0x498,%rsp
    409f:	5b                   	pop    %rbx
    40a0:	5d                   	pop    %rbp
    40a1:	c3                   	retq   

00000000000040a2 <phFuncReconfigure>:
    40a2:	55                   	push   %rbp
    40a3:	48 89 e5             	mov    %rsp,%rbp
    40a6:	48 83 ec 20          	sub    $0x20,%rsp
    40aa:	48 89 7d e8          	mov    %rdi,-0x18(%rbp)
    40ae:	48 8b 05 2b 96 20 00 	mov    0x20962b(%rip),%rax        # 20d6e0 <_ZL8myLogger>
    40b5:	48 85 c0             	test   %rax,%rax
    40b8:	75 0a                	jne    40c4 <phFuncReconfigure+0x22>
    40ba:	b8 01 00 00 00       	mov    $0x1,%eax
    40bf:	e9 55 01 00 00       	jmpq   4219 <phFuncReconfigure+0x177>
    40c4:	48 8b 05 15 96 20 00 	mov    0x209615(%rip),%rax        # 20d6e0 <_ZL8myLogger>
    40cb:	48 8b 55 e8          	mov    -0x18(%rbp),%rdx
    40cf:	48 89 d1             	mov    %rdx,%rcx
    40d2:	48 8d 15 a3 65 00 00 	lea    0x65a3(%rip),%rdx        # a67c <_fini+0x1070>
    40d9:	be 03 00 00 00       	mov    $0x3,%esi
    40de:	48 89 c7             	mov    %rax,%rdi
    40e1:	b8 00 00 00 00       	mov    $0x0,%eax
    40e6:	e8 05 eb ff ff       	callq  2bf0 <_Z16phLogFuncMessageP11phLogStruct11phLogType_tPKcz@plt>
    40eb:	48 83 7d e8 00       	cmpq   $0x0,-0x18(%rbp)
    40f0:	74 0d                	je     40ff <phFuncReconfigure+0x5d>
    40f2:	48 8b 45 e8          	mov    -0x18(%rbp),%rax
    40f6:	48 8b 00             	mov    (%rax),%rax
    40f9:	48 3b 45 e8          	cmp    -0x18(%rbp),%rax
    40fd:	74 0a                	je     4109 <phFuncReconfigure+0x67>
    40ff:	b8 02 00 00 00       	mov    $0x2,%eax
    4104:	e9 10 01 00 00       	jmpq   4219 <phFuncReconfigure+0x177>
    4109:	48 8b 45 e8          	mov    -0x18(%rbp),%rax
    410d:	48 89 c7             	mov    %rax,%rdi
    4110:	e8 42 f2 ff ff       	callq  3357 <_ZL17reconfigureGlobalP12phFuncStruct>
    4115:	85 c0                	test   %eax,%eax
    4117:	0f 94 c0             	sete   %al
    411a:	84 c0                	test   %al,%al
    411c:	74 2a                	je     4148 <phFuncReconfigure+0xa6>
    411e:	48 8b 05 bb 95 20 00 	mov    0x2095bb(%rip),%rax        # 20d6e0 <_ZL8myLogger>
    4125:	48 8d 15 6c 65 00 00 	lea    0x656c(%rip),%rdx        # a698 <_fini+0x108c>
    412c:	be 01 00 00 00       	mov    $0x1,%esi
    4131:	48 89 c7             	mov    %rax,%rdi
    4134:	b8 00 00 00 00       	mov    $0x0,%eax
    4139:	e8 b2 ea ff ff       	callq  2bf0 <_Z16phLogFuncMessageP11phLogStruct11phLogType_tPKcz@plt>
    413e:	b8 05 00 00 00       	mov    $0x5,%eax
    4143:	e9 d1 00 00 00       	jmpq   4219 <phFuncReconfigure+0x177>
    4148:	48 8b 45 e8          	mov    -0x18(%rbp),%rax
    414c:	be 02 00 00 00       	mov    $0x2,%esi
    4151:	48 89 c7             	mov    %rax,%rdi
    4154:	e8 0c f0 ff ff       	callq  3165 <_ZL12RememberCallP12phFuncStruct20phFuncAvailability_t>
    4159:	48 8b 45 e8          	mov    -0x18(%rbp),%rax
    415d:	8b 40 30             	mov    0x30(%rax),%eax
    4160:	85 c0                	test   %eax,%eax
    4162:	74 22                	je     4186 <phFuncReconfigure+0xe4>
    4164:	48 8b 05 75 95 20 00 	mov    0x209575(%rip),%rax        # 20d6e0 <_ZL8myLogger>
    416b:	48 8d 15 ae 65 00 00 	lea    0x65ae(%rip),%rdx        # a720 <_fini+0x1114>
    4172:	be 05 00 00 00       	mov    $0x5,%esi
    4177:	48 89 c7             	mov    %rax,%rdi
    417a:	b8 00 00 00 00       	mov    $0x0,%eax
    417f:	e8 6c ea ff ff       	callq  2bf0 <_Z16phLogFuncMessageP11phLogStruct11phLogType_tPKcz@plt>
    4184:	eb 2b                	jmp    41b1 <phFuncReconfigure+0x10f>
    4186:	48 8b 45 e8          	mov    -0x18(%rbp),%rax
    418a:	8b 40 34             	mov    0x34(%rax),%eax
    418d:	85 c0                	test   %eax,%eax
    418f:	74 27                	je     41b8 <phFuncReconfigure+0x116>
    4191:	48 8b 05 48 95 20 00 	mov    0x209548(%rip),%rax        # 20d6e0 <_ZL8myLogger>
    4198:	48 8d 15 b9 65 00 00 	lea    0x65b9(%rip),%rdx        # a758 <_fini+0x114c>
    419f:	be 05 00 00 00       	mov    $0x5,%esi
    41a4:	48 89 c7             	mov    %rax,%rdi
    41a7:	b8 00 00 00 00       	mov    $0x0,%eax
    41ac:	e8 3f ea ff ff       	callq  2bf0 <_Z16phLogFuncMessageP11phLogStruct11phLogType_tPKcz@plt>
    41b1:	b8 01 00 00 00       	mov    $0x1,%eax
    41b6:	eb 05                	jmp    41bd <phFuncReconfigure+0x11b>
    41b8:	b8 00 00 00 00       	mov    $0x0,%eax
    41bd:	84 c0                	test   %al,%al
    41bf:	74 4c                	je     420d <phFuncReconfigure+0x16b>
    41c1:	48 8b 05 20 95 20 00 	mov    0x209520(%rip),%rax        # 20d6e8 <_ZL17dummyReturnValues>
    41c8:	48 85 c0             	test   %rax,%rax
    41cb:	74 33                	je     4200 <phFuncReconfigure+0x15e>
    41cd:	8b 15 21 95 20 00    	mov    0x209521(%rip),%edx        # 20d6f4 <_ZL16dummyReturnIndex>
    41d3:	8b 05 17 95 20 00    	mov    0x209517(%rip),%eax        # 20d6f0 <_ZL16dummyReturnCount>
    41d9:	39 c2                	cmp    %eax,%edx
    41db:	7d 23                	jge    4200 <phFuncReconfigure+0x15e>
    41dd:	48 8b 0d 04 95 20 00 	mov    0x209504(%rip),%rcx        # 20d6e8 <_ZL17dummyReturnValues>
    41e4:	8b 05 0a 95 20 00    	mov    0x20950a(%rip),%eax        # 20d6f4 <_ZL16dummyReturnIndex>
    41ea:	8d 50 01             	lea    0x1(%rax),%edx
    41ed:	89 15 01 95 20 00    	mov    %edx,0x209501(%rip)        # 20d6f4 <_ZL16dummyReturnIndex>
    41f3:	48 98                	cltq   
    41f5:	48 c1 e0 02          	shl    $0x2,%rax
    41f9:	48 01 c8             	add    %rcx,%rax
    41fc:	8b 00                	mov    (%rax),%eax
    41fe:	eb 05                	jmp    4205 <phFuncReconfigure+0x163>
    4200:	b8 00 00 00 00       	mov    $0x0,%eax
    4205:	89 45 fc             	mov    %eax,-0x4(%rbp)
    4208:	8b 45 fc             	mov    -0x4(%rbp),%eax
    420b:	eb 0c                	jmp    4219 <phFuncReconfigure+0x177>
    420d:	48 8b 45 e8          	mov    -0x18(%rbp),%rax
    4211:	48 89 c7             	mov    %rax,%rdi
    4214:	e8 57 eb ff ff       	callq  2d70 <_Z18privateReconfigureP12phFuncStruct@plt>
    4219:	c9                   	leaveq 
    421a:	c3                   	retq   

000000000000421b <phFuncGetStatus>:
    421b:	55                   	push   %rbp
    421c:	48 89 e5             	mov    %rsp,%rbp
    421f:	53                   	push   %rbx
    4220:	48 81 ec 68 30 00 00 	sub    $0x3068,%rsp
    4227:	48 89 bd a8 cf ff ff 	mov    %rdi,-0x3058(%rbp)
    422e:	48 89 b5 a0 cf ff ff 	mov    %rsi,-0x3060(%rbp)
    4235:	48 89 95 98 cf ff ff 	mov    %rdx,-0x3068(%rbp)
    423c:	c7 45 ec 00 00 00 00 	movl   $0x0,-0x14(%rbp)
    4243:	48 c7 45 d0 00 00 00 	movq   $0x0,-0x30(%rbp)
    424a:	00 
    424b:	48 c7 45 e0 00 00 00 	movq   $0x0,-0x20(%rbp)
    4252:	00 
    4253:	48 c7 45 b8 00 00 00 	movq   $0x0,-0x48(%rbp)
    425a:	00 
    425b:	48 c7 45 c8 00 00 00 	movq   $0x0,-0x38(%rbp)
    4262:	00 
    4263:	48 c7 45 b0 00 00 00 	movq   $0x0,-0x50(%rbp)
    426a:	00 
    426b:	48 c7 85 b0 df ff ff 	movq   $0x0,-0x2050(%rbp)
    4272:	00 00 00 00 
    4276:	48 8d b5 b8 df ff ff 	lea    -0x2048(%rbp),%rsi
    427d:	b8 00 00 00 00       	mov    $0x0,%eax
    4282:	ba ff 01 00 00       	mov    $0x1ff,%edx
    4287:	48 89 f7             	mov    %rsi,%rdi
    428a:	48 89 d1             	mov    %rdx,%rcx
    428d:	f3 48 ab             	rep stos %rax,%es:(%rdi)
    4290:	48 c7 85 b0 ef ff ff 	movq   $0x0,-0x1050(%rbp)
    4297:	00 00 00 00 
    429b:	48 8d b5 b8 ef ff ff 	lea    -0x1048(%rbp),%rsi
    42a2:	b8 00 00 00 00       	mov    $0x0,%eax
    42a7:	ba ff 01 00 00       	mov    $0x1ff,%edx
    42ac:	48 89 f7             	mov    %rsi,%rdi
    42af:	48 89 d1             	mov    %rdx,%rcx
    42b2:	f3 48 ab             	rep stos %rax,%es:(%rdi)
    42b5:	c7 45 c4 00 00 00 00 	movl   $0x0,-0x3c(%rbp)
    42bc:	48 8b 05 1d 94 20 00 	mov    0x20941d(%rip),%rax        # 20d6e0 <_ZL8myLogger>
    42c3:	48 85 c0             	test   %rax,%rax
    42c6:	75 0a                	jne    42d2 <phFuncGetStatus+0xb7>
    42c8:	b8 01 00 00 00       	mov    $0x1,%eax
    42cd:	e9 d5 04 00 00       	jmpq   47a7 <phFuncGetStatus+0x58c>
    42d2:	48 8b 05 07 94 20 00 	mov    0x209407(%rip),%rax        # 20d6e0 <_ZL8myLogger>
    42d9:	48 8b 8d a0 cf ff ff 	mov    -0x3060(%rbp),%rcx
    42e0:	48 8b 95 a8 cf ff ff 	mov    -0x3058(%rbp),%rdx
    42e7:	49 89 c8             	mov    %rcx,%r8
    42ea:	48 89 d1             	mov    %rdx,%rcx
    42ed:	48 8d 15 99 64 00 00 	lea    0x6499(%rip),%rdx        # a78d <_fini+0x1181>
    42f4:	be 03 00 00 00       	mov    $0x3,%esi
    42f9:	48 89 c7             	mov    %rax,%rdi
    42fc:	b8 00 00 00 00       	mov    $0x0,%eax
    4301:	e8 ea e8 ff ff       	callq  2bf0 <_Z16phLogFuncMessageP11phLogStruct11phLogType_tPKcz@plt>
    4306:	48 8b 05 d3 93 20 00 	mov    0x2093d3(%rip),%rax        # 20d6e0 <_ZL8myLogger>
    430d:	48 8b 8d a0 cf ff ff 	mov    -0x3060(%rbp),%rcx
    4314:	48 8b 95 a8 cf ff ff 	mov    -0x3058(%rbp),%rdx
    431b:	49 89 c8             	mov    %rcx,%r8
    431e:	48 89 d1             	mov    %rdx,%rcx
    4321:	48 8d 15 7f 64 00 00 	lea    0x647f(%rip),%rdx        # a7a7 <_fini+0x119b>
    4328:	be 03 00 00 00       	mov    $0x3,%esi
    432d:	48 89 c7             	mov    %rax,%rdi
    4330:	b8 00 00 00 00       	mov    $0x0,%eax
    4335:	e8 b6 e8 ff ff       	callq  2bf0 <_Z16phLogFuncMessageP11phLogStruct11phLogType_tPKcz@plt>
    433a:	48 83 bd a8 cf ff ff 	cmpq   $0x0,-0x3058(%rbp)
    4341:	00 
    4342:	74 13                	je     4357 <phFuncGetStatus+0x13c>
    4344:	48 8b 85 a8 cf ff ff 	mov    -0x3058(%rbp),%rax
    434b:	48 8b 00             	mov    (%rax),%rax
    434e:	48 3b 85 a8 cf ff ff 	cmp    -0x3058(%rbp),%rax
    4355:	74 0a                	je     4361 <phFuncGetStatus+0x146>
    4357:	b8 02 00 00 00       	mov    $0x2,%eax
    435c:	e9 46 04 00 00       	jmpq   47a7 <phFuncGetStatus+0x58c>
    4361:	48 8b 85 a8 cf ff ff 	mov    -0x3058(%rbp),%rax
    4368:	be 00 00 08 00       	mov    $0x80000,%esi
    436d:	48 89 c7             	mov    %rax,%rdi
    4370:	e8 f0 ed ff ff       	callq  3165 <_ZL12RememberCallP12phFuncStruct20phFuncAvailability_t>
    4375:	48 8b 85 a8 cf ff ff 	mov    -0x3058(%rbp),%rax
    437c:	8b 40 30             	mov    0x30(%rax),%eax
    437f:	85 c0                	test   %eax,%eax
    4381:	74 22                	je     43a5 <phFuncGetStatus+0x18a>
    4383:	48 8b 05 56 93 20 00 	mov    0x209356(%rip),%rax        # 20d6e0 <_ZL8myLogger>
    438a:	48 8d 15 2f 64 00 00 	lea    0x642f(%rip),%rdx        # a7c0 <_fini+0x11b4>
    4391:	be 05 00 00 00       	mov    $0x5,%esi
    4396:	48 89 c7             	mov    %rax,%rdi
    4399:	b8 00 00 00 00       	mov    $0x0,%eax
    439e:	e8 4d e8 ff ff       	callq  2bf0 <_Z16phLogFuncMessageP11phLogStruct11phLogType_tPKcz@plt>
    43a3:	eb 2e                	jmp    43d3 <phFuncGetStatus+0x1b8>
    43a5:	48 8b 85 a8 cf ff ff 	mov    -0x3058(%rbp),%rax
    43ac:	8b 40 34             	mov    0x34(%rax),%eax
    43af:	85 c0                	test   %eax,%eax
    43b1:	74 27                	je     43da <phFuncGetStatus+0x1bf>
    43b3:	48 8b 05 26 93 20 00 	mov    0x209326(%rip),%rax        # 20d6e0 <_ZL8myLogger>
    43ba:	48 8d 15 27 64 00 00 	lea    0x6427(%rip),%rdx        # a7e8 <_fini+0x11dc>
    43c1:	be 05 00 00 00       	mov    $0x5,%esi
    43c6:	48 89 c7             	mov    %rax,%rdi
    43c9:	b8 00 00 00 00       	mov    $0x0,%eax
    43ce:	e8 1d e8 ff ff       	callq  2bf0 <_Z16phLogFuncMessageP11phLogStruct11phLogType_tPKcz@plt>
    43d3:	b8 01 00 00 00       	mov    $0x1,%eax
    43d8:	eb 05                	jmp    43df <phFuncGetStatus+0x1c4>
    43da:	b8 00 00 00 00       	mov    $0x0,%eax
    43df:	84 c0                	test   %al,%al
    43e1:	74 4f                	je     4432 <phFuncGetStatus+0x217>
    43e3:	48 8b 05 fe 92 20 00 	mov    0x2092fe(%rip),%rax        # 20d6e8 <_ZL17dummyReturnValues>
    43ea:	48 85 c0             	test   %rax,%rax
    43ed:	74 33                	je     4422 <phFuncGetStatus+0x207>
    43ef:	8b 15 ff 92 20 00    	mov    0x2092ff(%rip),%edx        # 20d6f4 <_ZL16dummyReturnIndex>
    43f5:	8b 05 f5 92 20 00    	mov    0x2092f5(%rip),%eax        # 20d6f0 <_ZL16dummyReturnCount>
    43fb:	39 c2                	cmp    %eax,%edx
    43fd:	7d 23                	jge    4422 <phFuncGetStatus+0x207>
    43ff:	48 8b 0d e2 92 20 00 	mov    0x2092e2(%rip),%rcx        # 20d6e8 <_ZL17dummyReturnValues>
    4406:	8b 05 e8 92 20 00    	mov    0x2092e8(%rip),%eax        # 20d6f4 <_ZL16dummyReturnIndex>
    440c:	8d 50 01             	lea    0x1(%rax),%edx
    440f:	89 15 df 92 20 00    	mov    %edx,0x2092df(%rip)        # 20d6f4 <_ZL16dummyReturnIndex>
    4415:	48 98                	cltq   
    4417:	48 c1 e0 02          	shl    $0x2,%rax
    441b:	48 01 c8             	add    %rcx,%rax
    441e:	8b 00                	mov    (%rax),%eax
    4420:	eb 05                	jmp    4427 <phFuncGetStatus+0x20c>
    4422:	b8 00 00 00 00       	mov    $0x0,%eax
    4427:	89 45 c0             	mov    %eax,-0x40(%rbp)
    442a:	8b 45 c0             	mov    -0x40(%rbp),%eax
    442d:	e9 75 03 00 00       	jmpq   47a7 <phFuncGetStatus+0x58c>
    4432:	48 8b 8d a0 cf ff ff 	mov    -0x3060(%rbp),%rcx
    4439:	48 8d 85 b0 cf ff ff 	lea    -0x3050(%rbp),%rax
    4440:	ba ff 0f 00 00       	mov    $0xfff,%edx
    4445:	48 89 ce             	mov    %rcx,%rsi
    4448:	48 89 c7             	mov    %rax,%rdi
    444b:	e8 00 eb ff ff       	callq  2f50 <strncpy@plt>
    4450:	48 8d 85 b0 cf ff ff 	lea    -0x3050(%rbp),%rax
    4457:	48 8d 35 b0 63 00 00 	lea    0x63b0(%rip),%rsi        # a80e <_fini+0x1202>
    445e:	48 89 c7             	mov    %rax,%rdi
    4461:	e8 da ea ff ff       	callq  2f40 <strtok@plt>
    4466:	48 89 45 d0          	mov    %rax,-0x30(%rbp)
    446a:	48 83 7d d0 00       	cmpq   $0x0,-0x30(%rbp)
    446f:	0f 84 74 02 00 00    	je     46e9 <phFuncGetStatus+0x4ce>
    4475:	48 8b 05 64 92 20 00 	mov    0x209264(%rip),%rax        # 20d6e0 <_ZL8myLogger>
    447c:	48 8b 55 d0          	mov    -0x30(%rbp),%rdx
    4480:	48 89 d1             	mov    %rdx,%rcx
    4483:	48 8d 15 8e 63 00 00 	lea    0x638e(%rip),%rdx        # a818 <_fini+0x120c>
    448a:	be 03 00 00 00       	mov    $0x3,%esi
    448f:	48 89 c7             	mov    %rax,%rdi
    4492:	b8 00 00 00 00       	mov    $0x0,%eax
    4497:	e8 54 e7 ff ff       	callq  2bf0 <_Z16phLogFuncMessageP11phLogStruct11phLogType_tPKcz@plt>
    449c:	48 8d 35 6b 63 00 00 	lea    0x636b(%rip),%rsi        # a80e <_fini+0x1202>
    44a3:	bf 00 00 00 00       	mov    $0x0,%edi
    44a8:	e8 93 ea ff ff       	callq  2f40 <strtok@plt>
    44ad:	48 89 45 e0          	mov    %rax,-0x20(%rbp)
    44b1:	48 83 7d e0 00       	cmpq   $0x0,-0x20(%rbp)
    44b6:	75 0b                	jne    44c3 <phFuncGetStatus+0x2a8>
    44b8:	48 8d 05 3f 5f 00 00 	lea    0x5f3f(%rip),%rax        # a3fe <_fini+0xdf2>
    44bf:	48 89 45 e0          	mov    %rax,-0x20(%rbp)
    44c3:	48 8b 45 e0          	mov    -0x20(%rbp),%rax
    44c7:	0f b6 00             	movzbl (%rax),%eax
    44ca:	84 c0                	test   %al,%al
    44cc:	74 46                	je     4514 <phFuncGetStatus+0x2f9>
    44ce:	48 8b 05 0b 92 20 00 	mov    0x20920b(%rip),%rax        # 20d6e0 <_ZL8myLogger>
    44d5:	48 8b 4d e0          	mov    -0x20(%rbp),%rcx
    44d9:	48 8b 55 d0          	mov    -0x30(%rbp),%rdx
    44dd:	49 89 c8             	mov    %rcx,%r8
    44e0:	48 89 d1             	mov    %rdx,%rcx
    44e3:	48 8d 15 4e 63 00 00 	lea    0x634e(%rip),%rdx        # a838 <_fini+0x122c>
    44ea:	be 04 00 00 00       	mov    $0x4,%esi
    44ef:	48 89 c7             	mov    %rax,%rdi
    44f2:	b8 00 00 00 00       	mov    $0x0,%eax
    44f7:	e8 f4 e6 ff ff       	callq  2bf0 <_Z16phLogFuncMessageP11phLogStruct11phLogType_tPKcz@plt>
    44fc:	48 8b 55 e0          	mov    -0x20(%rbp),%rdx
    4500:	48 8d 85 b0 ef ff ff 	lea    -0x1050(%rbp),%rax
    4507:	48 89 d6             	mov    %rdx,%rsi
    450a:	48 89 c7             	mov    %rax,%rdi
    450d:	e8 0e ea ff ff       	callq  2f20 <strcpy@plt>
    4512:	eb 27                	jmp    453b <phFuncGetStatus+0x320>
    4514:	48 8b 05 c5 91 20 00 	mov    0x2091c5(%rip),%rax        # 20d6e0 <_ZL8myLogger>
    451b:	48 8b 55 d0          	mov    -0x30(%rbp),%rdx
    451f:	48 89 d1             	mov    %rdx,%rcx
    4522:	48 8d 15 3f 63 00 00 	lea    0x633f(%rip),%rdx        # a868 <_fini+0x125c>
    4529:	be 04 00 00 00       	mov    $0x4,%esi
    452e:	48 89 c7             	mov    %rax,%rdi
    4531:	b8 00 00 00 00       	mov    $0x0,%eax
    4536:	e8 b5 e6 ff ff       	callq  2bf0 <_Z16phLogFuncMessageP11phLogStruct11phLogType_tPKcz@plt>
    453b:	48 8b 45 d0          	mov    -0x30(%rbp),%rax
    453f:	48 8d 35 48 63 00 00 	lea    0x6348(%rip),%rsi        # a88e <_fini+0x1282>
    4546:	48 89 c7             	mov    %rax,%rdi
    4549:	e8 92 e8 ff ff       	callq  2de0 <strstr@plt>
    454e:	48 85 c0             	test   %rax,%rax
    4551:	0f 84 72 01 00 00    	je     46c9 <phFuncGetStatus+0x4ae>
    4557:	48 8d 85 b0 ef ff ff 	lea    -0x1050(%rbp),%rax
    455e:	0f b6 00             	movzbl (%rax),%eax
    4561:	84 c0                	test   %al,%al
    4563:	0f 84 60 01 00 00    	je     46c9 <phFuncGetStatus+0x4ae>
    4569:	48 8d 85 b0 ef ff ff 	lea    -0x1050(%rbp),%rax
    4570:	48 8d 35 97 62 00 00 	lea    0x6297(%rip),%rsi        # a80e <_fini+0x1202>
    4577:	48 89 c7             	mov    %rax,%rdi
    457a:	e8 c1 e9 ff ff       	callq  2f40 <strtok@plt>
    457f:	48 89 45 c8          	mov    %rax,-0x38(%rbp)
    4583:	48 8b 85 a8 cf ff ff 	mov    -0x3058(%rbp),%rax
    458a:	48 8b 40 18          	mov    0x18(%rax),%rax
    458e:	48 8b 55 c8          	mov    -0x38(%rbp),%rdx
    4592:	48 89 d6             	mov    %rdx,%rsi
    4595:	48 89 c7             	mov    %rax,%rdi
    4598:	e8 83 e6 ff ff       	callq  2c20 <_Z15phConfConfIfDefP16phConfConfStructPKc@plt>
    459d:	89 45 dc             	mov    %eax,-0x24(%rbp)
    45a0:	83 7d dc 00          	cmpl   $0x0,-0x24(%rbp)
    45a4:	75 2b                	jne    45d1 <phFuncGetStatus+0x3b6>
    45a6:	48 8b 85 a8 cf ff ff 	mov    -0x3058(%rbp),%rax
    45ad:	48 8b 40 18          	mov    0x18(%rax),%rax
    45b1:	48 8d 55 b0          	lea    -0x50(%rbp),%rdx
    45b5:	48 8b 75 c8          	mov    -0x38(%rbp),%rsi
    45b9:	49 89 d0             	mov    %rdx,%r8
    45bc:	b9 00 00 00 00       	mov    $0x0,%ecx
    45c1:	ba 00 00 00 00       	mov    $0x0,%edx
    45c6:	48 89 c7             	mov    %rax,%rdi
    45c9:	e8 72 e6 ff ff       	callq  2c40 <_Z16phConfConfStringP16phConfConfStructPKciPiPS2_@plt>
    45ce:	89 45 dc             	mov    %eax,-0x24(%rbp)
    45d1:	83 7d dc 00          	cmpl   $0x0,-0x24(%rbp)
    45d5:	0f 85 ee 00 00 00    	jne    46c9 <phFuncGetStatus+0x4ae>
    45db:	48 8b 4d b0          	mov    -0x50(%rbp),%rcx
    45df:	48 8b 05 fa 90 20 00 	mov    0x2090fa(%rip),%rax        # 20d6e0 <_ZL8myLogger>
    45e6:	48 8b 55 c8          	mov    -0x38(%rbp),%rdx
    45ea:	49 89 c8             	mov    %rcx,%r8
    45ed:	48 89 d1             	mov    %rdx,%rcx
    45f0:	48 8d 15 a9 62 00 00 	lea    0x62a9(%rip),%rdx        # a8a0 <_fini+0x1294>
    45f7:	be 04 00 00 00       	mov    $0x4,%esi
    45fc:	48 89 c7             	mov    %rax,%rdi
    45ff:	b8 00 00 00 00       	mov    $0x0,%eax
    4604:	e8 e7 e5 ff ff       	callq  2bf0 <_Z16phLogFuncMessageP11phLogStruct11phLogType_tPKcz@plt>
    4609:	48 8b 55 c8          	mov    -0x38(%rbp),%rdx
    460d:	48 8b 45 e0          	mov    -0x20(%rbp),%rax
    4611:	48 89 d6             	mov    %rdx,%rsi
    4614:	48 89 c7             	mov    %rax,%rdi
    4617:	e8 c4 e7 ff ff       	callq  2de0 <strstr@plt>
    461c:	48 89 c2             	mov    %rax,%rdx
    461f:	48 8b 45 e0          	mov    -0x20(%rbp),%rax
    4623:	48 29 c2             	sub    %rax,%rdx
    4626:	48 89 d0             	mov    %rdx,%rax
    4629:	48 89 c2             	mov    %rax,%rdx
    462c:	48 8b 4d e0          	mov    -0x20(%rbp),%rcx
    4630:	48 8d 85 b0 df ff ff 	lea    -0x2050(%rbp),%rax
    4637:	48 89 ce             	mov    %rcx,%rsi
    463a:	48 89 c7             	mov    %rax,%rdi
    463d:	e8 0e e9 ff ff       	callq  2f50 <strncpy@plt>
    4642:	48 8b 55 b0          	mov    -0x50(%rbp),%rdx
    4646:	48 8d 85 b0 df ff ff 	lea    -0x2050(%rbp),%rax
    464d:	48 89 d6             	mov    %rdx,%rsi
    4650:	48 89 c7             	mov    %rax,%rdi
    4653:	e8 c8 e7 ff ff       	callq  2e20 <strcat@plt>
    4658:	48 8b 55 c8          	mov    -0x38(%rbp),%rdx
    465c:	48 8b 45 e0          	mov    -0x20(%rbp),%rax
    4660:	48 89 d6             	mov    %rdx,%rsi
    4663:	48 89 c7             	mov    %rax,%rdi
    4666:	e8 75 e7 ff ff       	callq  2de0 <strstr@plt>
    466b:	48 89 c2             	mov    %rax,%rdx
    466e:	48 8b 45 e0          	mov    -0x20(%rbp),%rax
    4672:	48 29 c2             	sub    %rax,%rdx
    4675:	48 89 d0             	mov    %rdx,%rax
    4678:	89 c3                	mov    %eax,%ebx
    467a:	48 8b 45 c8          	mov    -0x38(%rbp),%rax
    467e:	48 89 c7             	mov    %rax,%rdi
    4681:	e8 9a e6 ff ff       	callq  2d20 <strlen@plt>
    4686:	01 d8                	add    %ebx,%eax
    4688:	89 45 c4             	mov    %eax,-0x3c(%rbp)
    468b:	8b 45 c4             	mov    -0x3c(%rbp),%eax
    468e:	48 63 d0             	movslq %eax,%rdx
    4691:	48 8b 45 e0          	mov    -0x20(%rbp),%rax
    4695:	48 01 d0             	add    %rdx,%rax
    4698:	0f b6 00             	movzbl (%rax),%eax
    469b:	84 c0                	test   %al,%al
    469d:	74 1f                	je     46be <phFuncGetStatus+0x4a3>
    469f:	8b 45 c4             	mov    -0x3c(%rbp),%eax
    46a2:	48 98                	cltq   
    46a4:	48 01 45 e0          	add    %rax,-0x20(%rbp)
    46a8:	48 8b 55 e0          	mov    -0x20(%rbp),%rdx
    46ac:	48 8d 85 b0 df ff ff 	lea    -0x2050(%rbp),%rax
    46b3:	48 89 d6             	mov    %rdx,%rsi
    46b6:	48 89 c7             	mov    %rax,%rdi
    46b9:	e8 62 e7 ff ff       	callq  2e20 <strcat@plt>
    46be:	48 8d 85 b0 df ff ff 	lea    -0x2050(%rbp),%rax
    46c5:	48 89 45 e0          	mov    %rax,-0x20(%rbp)
    46c9:	48 8d 4d b8          	lea    -0x48(%rbp),%rcx
    46cd:	48 8b 55 e0          	mov    -0x20(%rbp),%rdx
    46d1:	48 8b 75 d0          	mov    -0x30(%rbp),%rsi
    46d5:	48 8b 85 a8 cf ff ff 	mov    -0x3058(%rbp),%rax
    46dc:	48 89 c7             	mov    %rax,%rdi
    46df:	e8 7c e7 ff ff       	callq  2e60 <_Z16privateGetStatusP12phFuncStructPKcS2_PPc@plt>
    46e4:	89 45 ec             	mov    %eax,-0x14(%rbp)
    46e7:	eb 07                	jmp    46f0 <phFuncGetStatus+0x4d5>
    46e9:	c7 45 ec 03 00 00 00 	movl   $0x3,-0x14(%rbp)
    46f0:	48 8b 45 b8          	mov    -0x48(%rbp),%rax
    46f4:	48 85 c0             	test   %rax,%rax
    46f7:	0f 84 a7 00 00 00    	je     47a4 <phFuncGetStatus+0x589>
    46fd:	48 8b 45 b8          	mov    -0x48(%rbp),%rax
    4701:	48 89 c7             	mov    %rax,%rdi
    4704:	e8 17 e6 ff ff       	callq  2d20 <strlen@plt>
    4709:	48 89 c1             	mov    %rax,%rcx
    470c:	48 8b 55 b8          	mov    -0x48(%rbp),%rdx
    4710:	48 8b 05 c9 8f 20 00 	mov    0x208fc9(%rip),%rax        # 20d6e0 <_ZL8myLogger>
    4717:	49 89 c8             	mov    %rcx,%r8
    471a:	48 89 d1             	mov    %rdx,%rcx
    471d:	48 8d 15 ac 61 00 00 	lea    0x61ac(%rip),%rdx        # a8d0 <_fini+0x12c4>
    4724:	be 03 00 00 00       	mov    $0x3,%esi
    4729:	48 89 c7             	mov    %rax,%rdi
    472c:	b8 00 00 00 00       	mov    $0x0,%eax
    4731:	e8 ba e4 ff ff       	callq  2bf0 <_Z16phLogFuncMessageP11phLogStruct11phLogType_tPKcz@plt>
    4736:	48 8b 45 b8          	mov    -0x48(%rbp),%rax
    473a:	ba ff 0f 00 00       	mov    $0xfff,%edx
    473f:	48 89 c6             	mov    %rax,%rsi
    4742:	48 8d 3d d7 97 20 00 	lea    0x2097d7(%rip),%rdi        # 20df20 <_ZZ15phFuncGetStatusE8response>
    4749:	e8 02 e8 ff ff       	callq  2f50 <strncpy@plt>
    474e:	48 8b 85 98 cf ff ff 	mov    -0x3068(%rbp),%rax
    4755:	48 8d 15 c4 97 20 00 	lea    0x2097c4(%rip),%rdx        # 20df20 <_ZZ15phFuncGetStatusE8response>
    475c:	48 89 10             	mov    %rdx,(%rax)
    475f:	48 8b 85 98 cf ff ff 	mov    -0x3068(%rbp),%rax
    4766:	48 8b 00             	mov    (%rax),%rax
    4769:	48 89 c7             	mov    %rax,%rdi
    476c:	e8 af e5 ff ff       	callq  2d20 <strlen@plt>
    4771:	48 89 c1             	mov    %rax,%rcx
    4774:	48 8b 85 98 cf ff ff 	mov    -0x3068(%rbp),%rax
    477b:	48 8b 10             	mov    (%rax),%rdx
    477e:	48 8b 05 5b 8f 20 00 	mov    0x208f5b(%rip),%rax        # 20d6e0 <_ZL8myLogger>
    4785:	49 89 c8             	mov    %rcx,%r8
    4788:	48 89 d1             	mov    %rdx,%rcx
    478b:	48 8d 15 6e 61 00 00 	lea    0x616e(%rip),%rdx        # a900 <_fini+0x12f4>
    4792:	be 03 00 00 00       	mov    $0x3,%esi
    4797:	48 89 c7             	mov    %rax,%rdi
    479a:	b8 00 00 00 00       	mov    $0x0,%eax
    479f:	e8 4c e4 ff ff       	callq  2bf0 <_Z16phLogFuncMessageP11phLogStruct11phLogType_tPKcz@plt>
    47a4:	8b 45 ec             	mov    -0x14(%rbp),%eax
    47a7:	48 81 c4 68 30 00 00 	add    $0x3068,%rsp
    47ae:	5b                   	pop    %rbx
    47af:	5d                   	pop    %rbp
    47b0:	c3                   	retq   

00000000000047b1 <phFuncSetStatus>:
    47b1:	55                   	push   %rbp
    47b2:	48 89 e5             	mov    %rsp,%rbp
    47b5:	53                   	push   %rbx
    47b6:	48 81 ec 58 40 00 00 	sub    $0x4058,%rsp
    47bd:	48 89 bd a8 bf ff ff 	mov    %rdi,-0x4058(%rbp)
    47c4:	48 89 b5 a0 bf ff ff 	mov    %rsi,-0x4060(%rbp)
    47cb:	c7 45 ec 00 00 00 00 	movl   $0x0,-0x14(%rbp)
    47d2:	48 c7 85 b0 bf ff ff 	movq   $0x0,-0x4050(%rbp)
    47d9:	00 00 00 00 
    47dd:	48 8d b5 b8 bf ff ff 	lea    -0x4048(%rbp),%rsi
    47e4:	b8 00 00 00 00       	mov    $0x0,%eax
    47e9:	ba ff 01 00 00       	mov    $0x1ff,%edx
    47ee:	48 89 f7             	mov    %rsi,%rdi
    47f1:	48 89 d1             	mov    %rdx,%rcx
    47f4:	f3 48 ab             	rep stos %rax,%es:(%rdi)
    47f7:	48 c7 85 b0 cf ff ff 	movq   $0x0,-0x3050(%rbp)
    47fe:	00 00 00 00 
    4802:	48 8d b5 b8 cf ff ff 	lea    -0x3048(%rbp),%rsi
    4809:	b8 00 00 00 00       	mov    $0x0,%eax
    480e:	ba ff 01 00 00       	mov    $0x1ff,%edx
    4813:	48 89 f7             	mov    %rsi,%rdi
    4816:	48 89 d1             	mov    %rdx,%rcx
    4819:	f3 48 ab             	rep stos %rax,%es:(%rdi)
    481c:	48 c7 45 d0 00 00 00 	movq   $0x0,-0x30(%rbp)
    4823:	00 
    4824:	48 c7 45 e0 00 00 00 	movq   $0x0,-0x20(%rbp)
    482b:	00 
    482c:	48 c7 45 c8 00 00 00 	movq   $0x0,-0x38(%rbp)
    4833:	00 
    4834:	48 c7 45 b8 00 00 00 	movq   $0x0,-0x48(%rbp)
    483b:	00 
    483c:	48 c7 85 b0 df ff ff 	movq   $0x0,-0x2050(%rbp)
    4843:	00 00 00 00 
    4847:	48 8d b5 b8 df ff ff 	lea    -0x2048(%rbp),%rsi
    484e:	b8 00 00 00 00       	mov    $0x0,%eax
    4853:	ba ff 01 00 00       	mov    $0x1ff,%edx
    4858:	48 89 f7             	mov    %rsi,%rdi
    485b:	48 89 d1             	mov    %rdx,%rcx
    485e:	f3 48 ab             	rep stos %rax,%es:(%rdi)
    4861:	48 c7 85 b0 ef ff ff 	movq   $0x0,-0x1050(%rbp)
    4868:	00 00 00 00 
    486c:	48 8d b5 b8 ef ff ff 	lea    -0x1048(%rbp),%rsi
    4873:	b8 00 00 00 00       	mov    $0x0,%eax
    4878:	ba ff 01 00 00       	mov    $0x1ff,%edx
    487d:	48 89 f7             	mov    %rsi,%rdi
    4880:	48 89 d1             	mov    %rdx,%rcx
    4883:	f3 48 ab             	rep stos %rax,%es:(%rdi)
    4886:	c7 45 c4 00 00 00 00 	movl   $0x0,-0x3c(%rbp)
    488d:	48 8b 05 4c 8e 20 00 	mov    0x208e4c(%rip),%rax        # 20d6e0 <_ZL8myLogger>
    4894:	48 85 c0             	test   %rax,%rax
    4897:	75 0a                	jne    48a3 <phFuncSetStatus+0xf2>
    4899:	b8 01 00 00 00       	mov    $0x1,%eax
    489e:	e9 8b 04 00 00       	jmpq   4d2e <phFuncSetStatus+0x57d>
    48a3:	48 8b 85 a8 bf ff ff 	mov    -0x4058(%rbp),%rax
    48aa:	48 8b 40 10          	mov    0x10(%rax),%rax
    48ae:	48 8b 8d a0 bf ff ff 	mov    -0x4060(%rbp),%rcx
    48b5:	48 8b 95 a8 bf ff ff 	mov    -0x4058(%rbp),%rdx
    48bc:	49 89 c8             	mov    %rcx,%r8
    48bf:	48 89 d1             	mov    %rdx,%rcx
    48c2:	48 8d 15 65 60 00 00 	lea    0x6065(%rip),%rdx        # a92e <_fini+0x1322>
    48c9:	be 03 00 00 00       	mov    $0x3,%esi
    48ce:	48 89 c7             	mov    %rax,%rdi
    48d1:	b8 00 00 00 00       	mov    $0x0,%eax
    48d6:	e8 15 e3 ff ff       	callq  2bf0 <_Z16phLogFuncMessageP11phLogStruct11phLogType_tPKcz@plt>
    48db:	48 8b 85 a8 bf ff ff 	mov    -0x4058(%rbp),%rax
    48e2:	48 8b 40 10          	mov    0x10(%rax),%rax
    48e6:	48 8b 8d a0 bf ff ff 	mov    -0x4060(%rbp),%rcx
    48ed:	48 8b 95 a8 bf ff ff 	mov    -0x4058(%rbp),%rdx
    48f4:	49 89 c8             	mov    %rcx,%r8
    48f7:	48 89 d1             	mov    %rdx,%rcx
    48fa:	48 8d 15 47 60 00 00 	lea    0x6047(%rip),%rdx        # a948 <_fini+0x133c>
    4901:	be 07 00 00 00       	mov    $0x7,%esi
    4906:	48 89 c7             	mov    %rax,%rdi
    4909:	b8 00 00 00 00       	mov    $0x0,%eax
    490e:	e8 dd e2 ff ff       	callq  2bf0 <_Z16phLogFuncMessageP11phLogStruct11phLogType_tPKcz@plt>
    4913:	48 83 bd a8 bf ff ff 	cmpq   $0x0,-0x4058(%rbp)
    491a:	00 
    491b:	74 13                	je     4930 <phFuncSetStatus+0x17f>
    491d:	48 8b 85 a8 bf ff ff 	mov    -0x4058(%rbp),%rax
    4924:	48 8b 00             	mov    (%rax),%rax
    4927:	48 3b 85 a8 bf ff ff 	cmp    -0x4058(%rbp),%rax
    492e:	74 0a                	je     493a <phFuncSetStatus+0x189>
    4930:	b8 02 00 00 00       	mov    $0x2,%eax
    4935:	e9 f4 03 00 00       	jmpq   4d2e <phFuncSetStatus+0x57d>
    493a:	48 8b 85 a8 bf ff ff 	mov    -0x4058(%rbp),%rax
    4941:	be 00 00 10 00       	mov    $0x100000,%esi
    4946:	48 89 c7             	mov    %rax,%rdi
    4949:	e8 17 e8 ff ff       	callq  3165 <_ZL12RememberCallP12phFuncStruct20phFuncAvailability_t>
    494e:	48 8b 85 a8 bf ff ff 	mov    -0x4058(%rbp),%rax
    4955:	8b 40 30             	mov    0x30(%rax),%eax
    4958:	85 c0                	test   %eax,%eax
    495a:	74 22                	je     497e <phFuncSetStatus+0x1cd>
    495c:	48 8b 05 7d 8d 20 00 	mov    0x208d7d(%rip),%rax        # 20d6e0 <_ZL8myLogger>
    4963:	48 8d 15 fe 5f 00 00 	lea    0x5ffe(%rip),%rdx        # a968 <_fini+0x135c>
    496a:	be 05 00 00 00       	mov    $0x5,%esi
    496f:	48 89 c7             	mov    %rax,%rdi
    4972:	b8 00 00 00 00       	mov    $0x0,%eax
    4977:	e8 74 e2 ff ff       	callq  2bf0 <_Z16phLogFuncMessageP11phLogStruct11phLogType_tPKcz@plt>
    497c:	eb 2e                	jmp    49ac <phFuncSetStatus+0x1fb>
    497e:	48 8b 85 a8 bf ff ff 	mov    -0x4058(%rbp),%rax
    4985:	8b 40 34             	mov    0x34(%rax),%eax
    4988:	85 c0                	test   %eax,%eax
    498a:	74 27                	je     49b3 <phFuncSetStatus+0x202>
    498c:	48 8b 05 4d 8d 20 00 	mov    0x208d4d(%rip),%rax        # 20d6e0 <_ZL8myLogger>
    4993:	48 8d 15 f6 5f 00 00 	lea    0x5ff6(%rip),%rdx        # a990 <_fini+0x1384>
    499a:	be 05 00 00 00       	mov    $0x5,%esi
    499f:	48 89 c7             	mov    %rax,%rdi
    49a2:	b8 00 00 00 00       	mov    $0x0,%eax
    49a7:	e8 44 e2 ff ff       	callq  2bf0 <_Z16phLogFuncMessageP11phLogStruct11phLogType_tPKcz@plt>
    49ac:	b8 01 00 00 00       	mov    $0x1,%eax
    49b1:	eb 05                	jmp    49b8 <phFuncSetStatus+0x207>
    49b3:	b8 00 00 00 00       	mov    $0x0,%eax
    49b8:	84 c0                	test   %al,%al
    49ba:	74 4f                	je     4a0b <phFuncSetStatus+0x25a>
    49bc:	48 8b 05 25 8d 20 00 	mov    0x208d25(%rip),%rax        # 20d6e8 <_ZL17dummyReturnValues>
    49c3:	48 85 c0             	test   %rax,%rax
    49c6:	74 33                	je     49fb <phFuncSetStatus+0x24a>
    49c8:	8b 15 26 8d 20 00    	mov    0x208d26(%rip),%edx        # 20d6f4 <_ZL16dummyReturnIndex>
    49ce:	8b 05 1c 8d 20 00    	mov    0x208d1c(%rip),%eax        # 20d6f0 <_ZL16dummyReturnCount>
    49d4:	39 c2                	cmp    %eax,%edx
    49d6:	7d 23                	jge    49fb <phFuncSetStatus+0x24a>
    49d8:	48 8b 0d 09 8d 20 00 	mov    0x208d09(%rip),%rcx        # 20d6e8 <_ZL17dummyReturnValues>
    49df:	8b 05 0f 8d 20 00    	mov    0x208d0f(%rip),%eax        # 20d6f4 <_ZL16dummyReturnIndex>
    49e5:	8d 50 01             	lea    0x1(%rax),%edx
    49e8:	89 15 06 8d 20 00    	mov    %edx,0x208d06(%rip)        # 20d6f4 <_ZL16dummyReturnIndex>
    49ee:	48 98                	cltq   
    49f0:	48 c1 e0 02          	shl    $0x2,%rax
    49f4:	48 01 c8             	add    %rcx,%rax
    49f7:	8b 00                	mov    (%rax),%eax
    49f9:	eb 05                	jmp    4a00 <phFuncSetStatus+0x24f>
    49fb:	b8 00 00 00 00       	mov    $0x0,%eax
    4a00:	89 45 c0             	mov    %eax,-0x40(%rbp)
    4a03:	8b 45 c0             	mov    -0x40(%rbp),%eax
    4a06:	e9 23 03 00 00       	jmpq   4d2e <phFuncSetStatus+0x57d>
    4a0b:	48 8b 85 a8 bf ff ff 	mov    -0x4058(%rbp),%rax
    4a12:	48 89 c7             	mov    %rax,%rdi
    4a15:	e8 16 e4 ff ff       	callq  2e30 <_Z13phFuncTaStartP12phFuncStruct@plt>
    4a1a:	48 8b 85 a0 bf ff ff 	mov    -0x4060(%rbp),%rax
    4a21:	48 89 c7             	mov    %rax,%rdi
    4a24:	e8 f7 e2 ff ff       	callq  2d20 <strlen@plt>
    4a29:	48 3d 00 10 00 00    	cmp    $0x1000,%rax
    4a2f:	77 19                	ja     4a4a <phFuncSetStatus+0x299>
    4a31:	48 8b 95 a0 bf ff ff 	mov    -0x4060(%rbp),%rdx
    4a38:	48 8d 85 b0 bf ff ff 	lea    -0x4050(%rbp),%rax
    4a3f:	48 89 d6             	mov    %rdx,%rsi
    4a42:	48 89 c7             	mov    %rax,%rdi
    4a45:	e8 d6 e4 ff ff       	callq  2f20 <strcpy@plt>
    4a4a:	48 8d 85 b0 bf ff ff 	lea    -0x4050(%rbp),%rax
    4a51:	48 8d 35 b6 5d 00 00 	lea    0x5db6(%rip),%rsi        # a80e <_fini+0x1202>
    4a58:	48 89 c7             	mov    %rax,%rdi
    4a5b:	e8 e0 e4 ff ff       	callq  2f40 <strtok@plt>
    4a60:	48 89 45 d0          	mov    %rax,-0x30(%rbp)
    4a64:	48 83 7d d0 00       	cmpq   $0x0,-0x30(%rbp)
    4a69:	0f 84 a6 02 00 00    	je     4d15 <phFuncSetStatus+0x564>
    4a6f:	48 8b 85 a8 bf ff ff 	mov    -0x4058(%rbp),%rax
    4a76:	48 8b 40 10          	mov    0x10(%rax),%rax
    4a7a:	48 8b 55 d0          	mov    -0x30(%rbp),%rdx
    4a7e:	48 89 d1             	mov    %rdx,%rcx
    4a81:	48 8d 15 30 5f 00 00 	lea    0x5f30(%rip),%rdx        # a9b8 <_fini+0x13ac>
    4a88:	be 03 00 00 00       	mov    $0x3,%esi
    4a8d:	48 89 c7             	mov    %rax,%rdi
    4a90:	b8 00 00 00 00       	mov    $0x0,%eax
    4a95:	e8 56 e1 ff ff       	callq  2bf0 <_Z16phLogFuncMessageP11phLogStruct11phLogType_tPKcz@plt>
    4a9a:	48 8b 45 d0          	mov    -0x30(%rbp),%rax
    4a9e:	48 89 c7             	mov    %rax,%rdi
    4aa1:	e8 7a e2 ff ff       	callq  2d20 <strlen@plt>
    4aa6:	48 8b 95 a0 bf ff ff 	mov    -0x4060(%rbp),%rdx
    4aad:	48 8d 0c 10          	lea    (%rax,%rdx,1),%rcx
    4ab1:	48 8d 85 b0 cf ff ff 	lea    -0x3050(%rbp),%rax
    4ab8:	ba ff 0f 00 00       	mov    $0xfff,%edx
    4abd:	48 89 ce             	mov    %rcx,%rsi
    4ac0:	48 89 c7             	mov    %rax,%rdi
    4ac3:	e8 88 e4 ff ff       	callq  2f50 <strncpy@plt>
    4ac8:	c6 85 af df ff ff 00 	movb   $0x0,-0x2051(%rbp)
    4acf:	48 8d 85 b0 cf ff ff 	lea    -0x3050(%rbp),%rax
    4ad6:	48 8d 35 fb 5e 00 00 	lea    0x5efb(%rip),%rsi        # a9d8 <_fini+0x13cc>
    4add:	48 89 c7             	mov    %rax,%rdi
    4ae0:	e8 1b e3 ff ff       	callq  2e00 <_Z30phTrimLeadingTrailingDelimiterPcPKc@plt>
    4ae5:	48 8d 85 b0 cf ff ff 	lea    -0x3050(%rbp),%rax
    4aec:	48 89 45 e0          	mov    %rax,-0x20(%rbp)
    4af0:	48 8b 45 e0          	mov    -0x20(%rbp),%rax
    4af4:	0f b6 00             	movzbl (%rax),%eax
    4af7:	84 c0                	test   %al,%al
    4af9:	74 46                	je     4b41 <phFuncSetStatus+0x390>
    4afb:	48 8b 05 de 8b 20 00 	mov    0x208bde(%rip),%rax        # 20d6e0 <_ZL8myLogger>
    4b02:	48 8b 4d e0          	mov    -0x20(%rbp),%rcx
    4b06:	48 8b 55 d0          	mov    -0x30(%rbp),%rdx
    4b0a:	49 89 c8             	mov    %rcx,%r8
    4b0d:	48 89 d1             	mov    %rdx,%rcx
    4b10:	48 8d 15 c9 5e 00 00 	lea    0x5ec9(%rip),%rdx        # a9e0 <_fini+0x13d4>
    4b17:	be 04 00 00 00       	mov    $0x4,%esi
    4b1c:	48 89 c7             	mov    %rax,%rdi
    4b1f:	b8 00 00 00 00       	mov    $0x0,%eax
    4b24:	e8 c7 e0 ff ff       	callq  2bf0 <_Z16phLogFuncMessageP11phLogStruct11phLogType_tPKcz@plt>
    4b29:	48 8b 55 e0          	mov    -0x20(%rbp),%rdx
    4b2d:	48 8d 85 b0 ef ff ff 	lea    -0x1050(%rbp),%rax
    4b34:	48 89 d6             	mov    %rdx,%rsi
    4b37:	48 89 c7             	mov    %rax,%rdi
    4b3a:	e8 e1 e3 ff ff       	callq  2f20 <strcpy@plt>
    4b3f:	eb 27                	jmp    4b68 <phFuncSetStatus+0x3b7>
    4b41:	48 8b 05 98 8b 20 00 	mov    0x208b98(%rip),%rax        # 20d6e0 <_ZL8myLogger>
    4b48:	48 8b 55 d0          	mov    -0x30(%rbp),%rdx
    4b4c:	48 89 d1             	mov    %rdx,%rcx
    4b4f:	48 8d 15 ba 5e 00 00 	lea    0x5eba(%rip),%rdx        # aa10 <_fini+0x1404>
    4b56:	be 04 00 00 00       	mov    $0x4,%esi
    4b5b:	48 89 c7             	mov    %rax,%rdi
    4b5e:	b8 00 00 00 00       	mov    $0x0,%eax
    4b63:	e8 88 e0 ff ff       	callq  2bf0 <_Z16phLogFuncMessageP11phLogStruct11phLogType_tPKcz@plt>
    4b68:	48 8b 45 d0          	mov    -0x30(%rbp),%rax
    4b6c:	48 8d 35 1b 5d 00 00 	lea    0x5d1b(%rip),%rsi        # a88e <_fini+0x1282>
    4b73:	48 89 c7             	mov    %rax,%rdi
    4b76:	e8 65 e2 ff ff       	callq  2de0 <strstr@plt>
    4b7b:	48 85 c0             	test   %rax,%rax
    4b7e:	0f 84 72 01 00 00    	je     4cf6 <phFuncSetStatus+0x545>
    4b84:	48 8d 85 b0 ef ff ff 	lea    -0x1050(%rbp),%rax
    4b8b:	0f b6 00             	movzbl (%rax),%eax
    4b8e:	84 c0                	test   %al,%al
    4b90:	0f 84 60 01 00 00    	je     4cf6 <phFuncSetStatus+0x545>
    4b96:	48 8d 85 b0 ef ff ff 	lea    -0x1050(%rbp),%rax
    4b9d:	48 8d 35 6a 5c 00 00 	lea    0x5c6a(%rip),%rsi        # a80e <_fini+0x1202>
    4ba4:	48 89 c7             	mov    %rax,%rdi
    4ba7:	e8 94 e3 ff ff       	callq  2f40 <strtok@plt>
    4bac:	48 89 45 c8          	mov    %rax,-0x38(%rbp)
    4bb0:	48 8b 85 a8 bf ff ff 	mov    -0x4058(%rbp),%rax
    4bb7:	48 8b 40 18          	mov    0x18(%rax),%rax
    4bbb:	48 8b 55 c8          	mov    -0x38(%rbp),%rdx
    4bbf:	48 89 d6             	mov    %rdx,%rsi
    4bc2:	48 89 c7             	mov    %rax,%rdi
    4bc5:	e8 56 e0 ff ff       	callq  2c20 <_Z15phConfConfIfDefP16phConfConfStructPKc@plt>
    4bca:	89 45 dc             	mov    %eax,-0x24(%rbp)
    4bcd:	83 7d dc 00          	cmpl   $0x0,-0x24(%rbp)
    4bd1:	75 2b                	jne    4bfe <phFuncSetStatus+0x44d>
    4bd3:	48 8b 85 a8 bf ff ff 	mov    -0x4058(%rbp),%rax
    4bda:	48 8b 40 18          	mov    0x18(%rax),%rax
    4bde:	48 8d 55 b8          	lea    -0x48(%rbp),%rdx
    4be2:	48 8b 75 c8          	mov    -0x38(%rbp),%rsi
    4be6:	49 89 d0             	mov    %rdx,%r8
    4be9:	b9 00 00 00 00       	mov    $0x0,%ecx
    4bee:	ba 00 00 00 00       	mov    $0x0,%edx
    4bf3:	48 89 c7             	mov    %rax,%rdi
    4bf6:	e8 45 e0 ff ff       	callq  2c40 <_Z16phConfConfStringP16phConfConfStructPKciPiPS2_@plt>
    4bfb:	89 45 dc             	mov    %eax,-0x24(%rbp)
    4bfe:	83 7d dc 00          	cmpl   $0x0,-0x24(%rbp)
    4c02:	0f 85 ee 00 00 00    	jne    4cf6 <phFuncSetStatus+0x545>
    4c08:	48 8b 4d b8          	mov    -0x48(%rbp),%rcx
    4c0c:	48 8b 05 cd 8a 20 00 	mov    0x208acd(%rip),%rax        # 20d6e0 <_ZL8myLogger>
    4c13:	48 8b 55 c8          	mov    -0x38(%rbp),%rdx
    4c17:	49 89 c8             	mov    %rcx,%r8
    4c1a:	48 89 d1             	mov    %rdx,%rcx
    4c1d:	48 8d 15 7c 5c 00 00 	lea    0x5c7c(%rip),%rdx        # a8a0 <_fini+0x1294>
    4c24:	be 04 00 00 00       	mov    $0x4,%esi
    4c29:	48 89 c7             	mov    %rax,%rdi
    4c2c:	b8 00 00 00 00       	mov    $0x0,%eax
    4c31:	e8 ba df ff ff       	callq  2bf0 <_Z16phLogFuncMessageP11phLogStruct11phLogType_tPKcz@plt>
    4c36:	48 8b 55 c8          	mov    -0x38(%rbp),%rdx
    4c3a:	48 8b 45 e0          	mov    -0x20(%rbp),%rax
    4c3e:	48 89 d6             	mov    %rdx,%rsi
    4c41:	48 89 c7             	mov    %rax,%rdi
    4c44:	e8 97 e1 ff ff       	callq  2de0 <strstr@plt>
    4c49:	48 89 c2             	mov    %rax,%rdx
    4c4c:	48 8b 45 e0          	mov    -0x20(%rbp),%rax
    4c50:	48 29 c2             	sub    %rax,%rdx
    4c53:	48 89 d0             	mov    %rdx,%rax
    4c56:	48 89 c2             	mov    %rax,%rdx
    4c59:	48 8b 4d e0          	mov    -0x20(%rbp),%rcx
    4c5d:	48 8d 85 b0 df ff ff 	lea    -0x2050(%rbp),%rax
    4c64:	48 89 ce             	mov    %rcx,%rsi
    4c67:	48 89 c7             	mov    %rax,%rdi
    4c6a:	e8 e1 e2 ff ff       	callq  2f50 <strncpy@plt>
    4c6f:	48 8b 55 b8          	mov    -0x48(%rbp),%rdx
    4c73:	48 8d 85 b0 df ff ff 	lea    -0x2050(%rbp),%rax
    4c7a:	48 89 d6             	mov    %rdx,%rsi
    4c7d:	48 89 c7             	mov    %rax,%rdi
    4c80:	e8 9b e1 ff ff       	callq  2e20 <strcat@plt>
    4c85:	48 8b 55 c8          	mov    -0x38(%rbp),%rdx
    4c89:	48 8b 45 e0          	mov    -0x20(%rbp),%rax
    4c8d:	48 89 d6             	mov    %rdx,%rsi
    4c90:	48 89 c7             	mov    %rax,%rdi
    4c93:	e8 48 e1 ff ff       	callq  2de0 <strstr@plt>
    4c98:	48 89 c2             	mov    %rax,%rdx
    4c9b:	48 8b 45 e0          	mov    -0x20(%rbp),%rax
    4c9f:	48 29 c2             	sub    %rax,%rdx
    4ca2:	48 89 d0             	mov    %rdx,%rax
    4ca5:	89 c3                	mov    %eax,%ebx
    4ca7:	48 8b 45 c8          	mov    -0x38(%rbp),%rax
    4cab:	48 89 c7             	mov    %rax,%rdi
    4cae:	e8 6d e0 ff ff       	callq  2d20 <strlen@plt>
    4cb3:	01 d8                	add    %ebx,%eax
    4cb5:	89 45 c4             	mov    %eax,-0x3c(%rbp)
    4cb8:	8b 45 c4             	mov    -0x3c(%rbp),%eax
    4cbb:	48 63 d0             	movslq %eax,%rdx
    4cbe:	48 8b 45 e0          	mov    -0x20(%rbp),%rax
    4cc2:	48 01 d0             	add    %rdx,%rax
    4cc5:	0f b6 00             	movzbl (%rax),%eax
    4cc8:	84 c0                	test   %al,%al
    4cca:	74 1f                	je     4ceb <phFuncSetStatus+0x53a>
    4ccc:	8b 45 c4             	mov    -0x3c(%rbp),%eax
    4ccf:	48 98                	cltq   
    4cd1:	48 01 45 e0          	add    %rax,-0x20(%rbp)
    4cd5:	48 8b 55 e0          	mov    -0x20(%rbp),%rdx
    4cd9:	48 8d 85 b0 df ff ff 	lea    -0x2050(%rbp),%rax
    4ce0:	48 89 d6             	mov    %rdx,%rsi
    4ce3:	48 89 c7             	mov    %rax,%rdi
    4ce6:	e8 35 e1 ff ff       	callq  2e20 <strcat@plt>
    4ceb:	48 8d 85 b0 df ff ff 	lea    -0x2050(%rbp),%rax
    4cf2:	48 89 45 e0          	mov    %rax,-0x20(%rbp)
    4cf6:	48 8b 55 e0          	mov    -0x20(%rbp),%rdx
    4cfa:	48 8b 4d d0          	mov    -0x30(%rbp),%rcx
    4cfe:	48 8b 85 a8 bf ff ff 	mov    -0x4058(%rbp),%rax
    4d05:	48 89 ce             	mov    %rcx,%rsi
    4d08:	48 89 c7             	mov    %rax,%rdi
    4d0b:	e8 c0 df ff ff       	callq  2cd0 <_Z16privateSetStatusP12phFuncStructPKcS2_@plt>
    4d10:	89 45 ec             	mov    %eax,-0x14(%rbp)
    4d13:	eb 07                	jmp    4d1c <phFuncSetStatus+0x56b>
    4d15:	c7 45 ec 03 00 00 00 	movl   $0x3,-0x14(%rbp)
    4d1c:	48 8b 85 a8 bf ff ff 	mov    -0x4058(%rbp),%rax
    4d23:	48 89 c7             	mov    %rax,%rdi
    4d26:	e8 d5 e1 ff ff       	callq  2f00 <_Z12phFuncTaStopP12phFuncStruct@plt>
    4d2b:	8b 45 ec             	mov    -0x14(%rbp),%eax
    4d2e:	48 81 c4 58 40 00 00 	add    $0x4058,%rsp
    4d35:	5b                   	pop    %rbx
    4d36:	5d                   	pop    %rbp
    4d37:	c3                   	retq   

0000000000004d38 <phFuncLotStart>:
    4d38:	55                   	push   %rbp
    4d39:	48 89 e5             	mov    %rsp,%rbp
    4d3c:	48 83 ec 20          	sub    $0x20,%rsp
    4d40:	48 89 7d e8          	mov    %rdi,-0x18(%rbp)
    4d44:	48 89 75 e0          	mov    %rsi,-0x20(%rbp)
    4d48:	c7 45 fc 01 00 00 00 	movl   $0x1,-0x4(%rbp)
    4d4f:	48 8b 05 8a 89 20 00 	mov    0x20898a(%rip),%rax        # 20d6e0 <_ZL8myLogger>
    4d56:	48 85 c0             	test   %rax,%rax
    4d59:	75 0a                	jne    4d65 <phFuncLotStart+0x2d>
    4d5b:	b8 01 00 00 00       	mov    $0x1,%eax
    4d60:	e9 4b 01 00 00       	jmpq   4eb0 <phFuncLotStart+0x178>
    4d65:	48 8b 05 74 89 20 00 	mov    0x208974(%rip),%rax        # 20d6e0 <_ZL8myLogger>
    4d6c:	48 8b 4d e0          	mov    -0x20(%rbp),%rcx
    4d70:	48 8b 55 e8          	mov    -0x18(%rbp),%rdx
    4d74:	49 89 c8             	mov    %rcx,%r8
    4d77:	48 89 d1             	mov    %rdx,%rcx
    4d7a:	48 8d 15 b5 5c 00 00 	lea    0x5cb5(%rip),%rdx        # aa36 <_fini+0x142a>
    4d81:	be 03 00 00 00       	mov    $0x3,%esi
    4d86:	48 89 c7             	mov    %rax,%rdi
    4d89:	b8 00 00 00 00       	mov    $0x0,%eax
    4d8e:	e8 5d de ff ff       	callq  2bf0 <_Z16phLogFuncMessageP11phLogStruct11phLogType_tPKcz@plt>
    4d93:	48 83 7d e8 00       	cmpq   $0x0,-0x18(%rbp)
    4d98:	74 0d                	je     4da7 <phFuncLotStart+0x6f>
    4d9a:	48 8b 45 e8          	mov    -0x18(%rbp),%rax
    4d9e:	48 8b 00             	mov    (%rax),%rax
    4da1:	48 3b 45 e8          	cmp    -0x18(%rbp),%rax
    4da5:	74 0a                	je     4db1 <phFuncLotStart+0x79>
    4da7:	b8 02 00 00 00       	mov    $0x2,%eax
    4dac:	e9 ff 00 00 00       	jmpq   4eb0 <phFuncLotStart+0x178>
    4db1:	48 8b 45 e8          	mov    -0x18(%rbp),%rax
    4db5:	be 00 00 20 00       	mov    $0x200000,%esi
    4dba:	48 89 c7             	mov    %rax,%rdi
    4dbd:	e8 a3 e3 ff ff       	callq  3165 <_ZL12RememberCallP12phFuncStruct20phFuncAvailability_t>
    4dc2:	48 8b 45 e8          	mov    -0x18(%rbp),%rax
    4dc6:	8b 40 30             	mov    0x30(%rax),%eax
    4dc9:	85 c0                	test   %eax,%eax
    4dcb:	74 22                	je     4def <phFuncLotStart+0xb7>
    4dcd:	48 8b 05 0c 89 20 00 	mov    0x20890c(%rip),%rax        # 20d6e0 <_ZL8myLogger>
    4dd4:	48 8d 15 75 5c 00 00 	lea    0x5c75(%rip),%rdx        # aa50 <_fini+0x1444>
    4ddb:	be 05 00 00 00       	mov    $0x5,%esi
    4de0:	48 89 c7             	mov    %rax,%rdi
    4de3:	b8 00 00 00 00       	mov    $0x0,%eax
    4de8:	e8 03 de ff ff       	callq  2bf0 <_Z16phLogFuncMessageP11phLogStruct11phLogType_tPKcz@plt>
    4ded:	eb 2b                	jmp    4e1a <phFuncLotStart+0xe2>
    4def:	48 8b 45 e8          	mov    -0x18(%rbp),%rax
    4df3:	8b 40 34             	mov    0x34(%rax),%eax
    4df6:	85 c0                	test   %eax,%eax
    4df8:	74 27                	je     4e21 <phFuncLotStart+0xe9>
    4dfa:	48 8b 05 df 88 20 00 	mov    0x2088df(%rip),%rax        # 20d6e0 <_ZL8myLogger>
    4e01:	48 8d 15 70 5c 00 00 	lea    0x5c70(%rip),%rdx        # aa78 <_fini+0x146c>
    4e08:	be 05 00 00 00       	mov    $0x5,%esi
    4e0d:	48 89 c7             	mov    %rax,%rdi
    4e10:	b8 00 00 00 00       	mov    $0x0,%eax
    4e15:	e8 d6 dd ff ff       	callq  2bf0 <_Z16phLogFuncMessageP11phLogStruct11phLogType_tPKcz@plt>
    4e1a:	b8 01 00 00 00       	mov    $0x1,%eax
    4e1f:	eb 05                	jmp    4e26 <phFuncLotStart+0xee>
    4e21:	b8 00 00 00 00       	mov    $0x0,%eax
    4e26:	84 c0                	test   %al,%al
    4e28:	74 4c                	je     4e76 <phFuncLotStart+0x13e>
    4e2a:	48 8b 05 b7 88 20 00 	mov    0x2088b7(%rip),%rax        # 20d6e8 <_ZL17dummyReturnValues>
    4e31:	48 85 c0             	test   %rax,%rax
    4e34:	74 33                	je     4e69 <phFuncLotStart+0x131>
    4e36:	8b 15 b8 88 20 00    	mov    0x2088b8(%rip),%edx        # 20d6f4 <_ZL16dummyReturnIndex>
    4e3c:	8b 05 ae 88 20 00    	mov    0x2088ae(%rip),%eax        # 20d6f0 <_ZL16dummyReturnCount>
    4e42:	39 c2                	cmp    %eax,%edx
    4e44:	7d 23                	jge    4e69 <phFuncLotStart+0x131>
    4e46:	48 8b 0d 9b 88 20 00 	mov    0x20889b(%rip),%rcx        # 20d6e8 <_ZL17dummyReturnValues>
    4e4d:	8b 05 a1 88 20 00    	mov    0x2088a1(%rip),%eax        # 20d6f4 <_ZL16dummyReturnIndex>
    4e53:	8d 50 01             	lea    0x1(%rax),%edx
    4e56:	89 15 98 88 20 00    	mov    %edx,0x208898(%rip)        # 20d6f4 <_ZL16dummyReturnIndex>
    4e5c:	48 98                	cltq   
    4e5e:	48 c1 e0 02          	shl    $0x2,%rax
    4e62:	48 01 c8             	add    %rcx,%rax
    4e65:	8b 00                	mov    (%rax),%eax
    4e67:	eb 05                	jmp    4e6e <phFuncLotStart+0x136>
    4e69:	b8 00 00 00 00       	mov    $0x0,%eax
    4e6e:	89 45 f8             	mov    %eax,-0x8(%rbp)
    4e71:	8b 45 f8             	mov    -0x8(%rbp),%eax
    4e74:	eb 3a                	jmp    4eb0 <phFuncLotStart+0x178>
    4e76:	48 8b 45 e0          	mov    -0x20(%rbp),%rax
    4e7a:	0f b6 00             	movzbl (%rax),%eax
    4e7d:	84 c0                	test   %al,%al
    4e7f:	74 1e                	je     4e9f <phFuncLotStart+0x167>
    4e81:	48 8b 45 e0          	mov    -0x20(%rbp),%rax
    4e85:	48 8d 35 0d 5c 00 00 	lea    0x5c0d(%rip),%rsi        # aa99 <_fini+0x148d>
    4e8c:	48 89 c7             	mov    %rax,%rdi
    4e8f:	e8 dc dd ff ff       	callq  2c70 <strcasecmp@plt>
    4e94:	85 c0                	test   %eax,%eax
    4e96:	75 07                	jne    4e9f <phFuncLotStart+0x167>
    4e98:	c7 45 fc 00 00 00 00 	movl   $0x0,-0x4(%rbp)
    4e9f:	8b 55 fc             	mov    -0x4(%rbp),%edx
    4ea2:	48 8b 45 e8          	mov    -0x18(%rbp),%rax
    4ea6:	89 d6                	mov    %edx,%esi
    4ea8:	48 89 c7             	mov    %rax,%rdi
    4eab:	e8 f0 de ff ff       	callq  2da0 <_Z15privateLotStartP12phFuncStructi@plt>
    4eb0:	c9                   	leaveq 
    4eb1:	c3                   	retq   

0000000000004eb2 <phFuncLotDone>:
    4eb2:	55                   	push   %rbp
    4eb3:	48 89 e5             	mov    %rsp,%rbp
    4eb6:	48 83 ec 20          	sub    $0x20,%rsp
    4eba:	48 89 7d e8          	mov    %rdi,-0x18(%rbp)
    4ebe:	48 89 75 e0          	mov    %rsi,-0x20(%rbp)
    4ec2:	c7 45 fc 01 00 00 00 	movl   $0x1,-0x4(%rbp)
    4ec9:	48 8b 05 10 88 20 00 	mov    0x208810(%rip),%rax        # 20d6e0 <_ZL8myLogger>
    4ed0:	48 85 c0             	test   %rax,%rax
    4ed3:	75 0a                	jne    4edf <phFuncLotDone+0x2d>
    4ed5:	b8 01 00 00 00       	mov    $0x1,%eax
    4eda:	e9 22 01 00 00       	jmpq   5001 <phFuncLotDone+0x14f>
    4edf:	48 8b 05 fa 87 20 00 	mov    0x2087fa(%rip),%rax        # 20d6e0 <_ZL8myLogger>
    4ee6:	48 8b 4d e0          	mov    -0x20(%rbp),%rcx
    4eea:	48 8b 55 e8          	mov    -0x18(%rbp),%rdx
    4eee:	49 89 c8             	mov    %rcx,%r8
    4ef1:	48 89 d1             	mov    %rdx,%rcx
    4ef4:	48 8d 15 a8 5b 00 00 	lea    0x5ba8(%rip),%rdx        # aaa3 <_fini+0x1497>
    4efb:	be 03 00 00 00       	mov    $0x3,%esi
    4f00:	48 89 c7             	mov    %rax,%rdi
    4f03:	b8 00 00 00 00       	mov    $0x0,%eax
    4f08:	e8 e3 dc ff ff       	callq  2bf0 <_Z16phLogFuncMessageP11phLogStruct11phLogType_tPKcz@plt>
    4f0d:	48 83 7d e8 00       	cmpq   $0x0,-0x18(%rbp)
    4f12:	74 0d                	je     4f21 <phFuncLotDone+0x6f>
    4f14:	48 8b 45 e8          	mov    -0x18(%rbp),%rax
    4f18:	48 8b 00             	mov    (%rax),%rax
    4f1b:	48 3b 45 e8          	cmp    -0x18(%rbp),%rax
    4f1f:	74 0a                	je     4f2b <phFuncLotDone+0x79>
    4f21:	b8 02 00 00 00       	mov    $0x2,%eax
    4f26:	e9 d6 00 00 00       	jmpq   5001 <phFuncLotDone+0x14f>
    4f2b:	48 8b 45 e8          	mov    -0x18(%rbp),%rax
    4f2f:	be 00 00 40 00       	mov    $0x400000,%esi
    4f34:	48 89 c7             	mov    %rax,%rdi
    4f37:	e8 29 e2 ff ff       	callq  3165 <_ZL12RememberCallP12phFuncStruct20phFuncAvailability_t>
    4f3c:	48 8b 45 e8          	mov    -0x18(%rbp),%rax
    4f40:	8b 40 30             	mov    0x30(%rax),%eax
    4f43:	85 c0                	test   %eax,%eax
    4f45:	74 22                	je     4f69 <phFuncLotDone+0xb7>
    4f47:	48 8b 05 92 87 20 00 	mov    0x208792(%rip),%rax        # 20d6e0 <_ZL8myLogger>
    4f4e:	48 8d 15 6b 5b 00 00 	lea    0x5b6b(%rip),%rdx        # aac0 <_fini+0x14b4>
    4f55:	be 05 00 00 00       	mov    $0x5,%esi
    4f5a:	48 89 c7             	mov    %rax,%rdi
    4f5d:	b8 00 00 00 00       	mov    $0x0,%eax
    4f62:	e8 89 dc ff ff       	callq  2bf0 <_Z16phLogFuncMessageP11phLogStruct11phLogType_tPKcz@plt>
    4f67:	eb 2b                	jmp    4f94 <phFuncLotDone+0xe2>
    4f69:	48 8b 45 e8          	mov    -0x18(%rbp),%rax
    4f6d:	8b 40 34             	mov    0x34(%rax),%eax
    4f70:	85 c0                	test   %eax,%eax
    4f72:	74 27                	je     4f9b <phFuncLotDone+0xe9>
    4f74:	48 8b 05 65 87 20 00 	mov    0x208765(%rip),%rax        # 20d6e0 <_ZL8myLogger>
    4f7b:	48 8d 15 66 5b 00 00 	lea    0x5b66(%rip),%rdx        # aae8 <_fini+0x14dc>
    4f82:	be 05 00 00 00       	mov    $0x5,%esi
    4f87:	48 89 c7             	mov    %rax,%rdi
    4f8a:	b8 00 00 00 00       	mov    $0x0,%eax
    4f8f:	e8 5c dc ff ff       	callq  2bf0 <_Z16phLogFuncMessageP11phLogStruct11phLogType_tPKcz@plt>
    4f94:	b8 01 00 00 00       	mov    $0x1,%eax
    4f99:	eb 05                	jmp    4fa0 <phFuncLotDone+0xee>
    4f9b:	b8 00 00 00 00       	mov    $0x0,%eax
    4fa0:	84 c0                	test   %al,%al
    4fa2:	74 4c                	je     4ff0 <phFuncLotDone+0x13e>
    4fa4:	48 8b 05 3d 87 20 00 	mov    0x20873d(%rip),%rax        # 20d6e8 <_ZL17dummyReturnValues>
    4fab:	48 85 c0             	test   %rax,%rax
    4fae:	74 33                	je     4fe3 <phFuncLotDone+0x131>
    4fb0:	8b 15 3e 87 20 00    	mov    0x20873e(%rip),%edx        # 20d6f4 <_ZL16dummyReturnIndex>
    4fb6:	8b 05 34 87 20 00    	mov    0x208734(%rip),%eax        # 20d6f0 <_ZL16dummyReturnCount>
    4fbc:	39 c2                	cmp    %eax,%edx
    4fbe:	7d 23                	jge    4fe3 <phFuncLotDone+0x131>
    4fc0:	48 8b 0d 21 87 20 00 	mov    0x208721(%rip),%rcx        # 20d6e8 <_ZL17dummyReturnValues>
    4fc7:	8b 05 27 87 20 00    	mov    0x208727(%rip),%eax        # 20d6f4 <_ZL16dummyReturnIndex>
    4fcd:	8d 50 01             	lea    0x1(%rax),%edx
    4fd0:	89 15 1e 87 20 00    	mov    %edx,0x20871e(%rip)        # 20d6f4 <_ZL16dummyReturnIndex>
    4fd6:	48 98                	cltq   
    4fd8:	48 c1 e0 02          	shl    $0x2,%rax
    4fdc:	48 01 c8             	add    %rcx,%rax
    4fdf:	8b 00                	mov    (%rax),%eax
    4fe1:	eb 05                	jmp    4fe8 <phFuncLotDone+0x136>
    4fe3:	b8 00 00 00 00       	mov    $0x0,%eax
    4fe8:	89 45 f8             	mov    %eax,-0x8(%rbp)
    4feb:	8b 45 f8             	mov    -0x8(%rbp),%eax
    4fee:	eb 11                	jmp    5001 <phFuncLotDone+0x14f>
    4ff0:	8b 55 fc             	mov    -0x4(%rbp),%edx
    4ff3:	48 8b 45 e8          	mov    -0x18(%rbp),%rax
    4ff7:	89 d6                	mov    %edx,%esi
    4ff9:	48 89 c7             	mov    %rax,%rdi
    4ffc:	e8 7f dc ff ff       	callq  2c80 <_Z14privateLotDoneP12phFuncStructi@plt>
    5001:	c9                   	leaveq 
    5002:	c3                   	retq   

0000000000005003 <phFuncStripStart>:
    5003:	55                   	push   %rbp
    5004:	48 89 e5             	mov    %rsp,%rbp
    5007:	48 83 ec 20          	sub    $0x20,%rsp
    500b:	48 89 7d e8          	mov    %rdi,-0x18(%rbp)
    500f:	48 89 75 e0          	mov    %rsi,-0x20(%rbp)
    5013:	c7 45 fc 01 00 00 00 	movl   $0x1,-0x4(%rbp)
    501a:	48 8b 05 bf 86 20 00 	mov    0x2086bf(%rip),%rax        # 20d6e0 <_ZL8myLogger>
    5021:	48 85 c0             	test   %rax,%rax
    5024:	75 0a                	jne    5030 <phFuncStripStart+0x2d>
    5026:	b8 01 00 00 00       	mov    $0x1,%eax
    502b:	e9 4b 01 00 00       	jmpq   517b <phFuncStripStart+0x178>
    5030:	48 8b 05 a9 86 20 00 	mov    0x2086a9(%rip),%rax        # 20d6e0 <_ZL8myLogger>
    5037:	48 8b 4d e0          	mov    -0x20(%rbp),%rcx
    503b:	48 8b 55 e8          	mov    -0x18(%rbp),%rdx
    503f:	49 89 c8             	mov    %rcx,%r8
    5042:	48 89 d1             	mov    %rdx,%rcx
    5045:	48 8d 15 bc 5a 00 00 	lea    0x5abc(%rip),%rdx        # ab08 <_fini+0x14fc>
    504c:	be 03 00 00 00       	mov    $0x3,%esi
    5051:	48 89 c7             	mov    %rax,%rdi
    5054:	b8 00 00 00 00       	mov    $0x0,%eax
    5059:	e8 92 db ff ff       	callq  2bf0 <_Z16phLogFuncMessageP11phLogStruct11phLogType_tPKcz@plt>
    505e:	48 83 7d e8 00       	cmpq   $0x0,-0x18(%rbp)
    5063:	74 0d                	je     5072 <phFuncStripStart+0x6f>
    5065:	48 8b 45 e8          	mov    -0x18(%rbp),%rax
    5069:	48 8b 00             	mov    (%rax),%rax
    506c:	48 3b 45 e8          	cmp    -0x18(%rbp),%rax
    5070:	74 0a                	je     507c <phFuncStripStart+0x79>
    5072:	b8 02 00 00 00       	mov    $0x2,%eax
    5077:	e9 ff 00 00 00       	jmpq   517b <phFuncStripStart+0x178>
    507c:	48 8b 45 e8          	mov    -0x18(%rbp),%rax
    5080:	be 00 00 00 04       	mov    $0x4000000,%esi
    5085:	48 89 c7             	mov    %rax,%rdi
    5088:	e8 d8 e0 ff ff       	callq  3165 <_ZL12RememberCallP12phFuncStruct20phFuncAvailability_t>
    508d:	48 8b 45 e8          	mov    -0x18(%rbp),%rax
    5091:	8b 40 30             	mov    0x30(%rax),%eax
    5094:	85 c0                	test   %eax,%eax
    5096:	74 22                	je     50ba <phFuncStripStart+0xb7>
    5098:	48 8b 05 41 86 20 00 	mov    0x208641(%rip),%rax        # 20d6e0 <_ZL8myLogger>
    509f:	48 8d 15 82 5a 00 00 	lea    0x5a82(%rip),%rdx        # ab28 <_fini+0x151c>
    50a6:	be 05 00 00 00       	mov    $0x5,%esi
    50ab:	48 89 c7             	mov    %rax,%rdi
    50ae:	b8 00 00 00 00       	mov    $0x0,%eax
    50b3:	e8 38 db ff ff       	callq  2bf0 <_Z16phLogFuncMessageP11phLogStruct11phLogType_tPKcz@plt>
    50b8:	eb 2b                	jmp    50e5 <phFuncStripStart+0xe2>
    50ba:	48 8b 45 e8          	mov    -0x18(%rbp),%rax
    50be:	8b 40 34             	mov    0x34(%rax),%eax
    50c1:	85 c0                	test   %eax,%eax
    50c3:	74 27                	je     50ec <phFuncStripStart+0xe9>
    50c5:	48 8b 05 14 86 20 00 	mov    0x208614(%rip),%rax        # 20d6e0 <_ZL8myLogger>
    50cc:	48 8d 15 7d 5a 00 00 	lea    0x5a7d(%rip),%rdx        # ab50 <_fini+0x1544>
    50d3:	be 05 00 00 00       	mov    $0x5,%esi
    50d8:	48 89 c7             	mov    %rax,%rdi
    50db:	b8 00 00 00 00       	mov    $0x0,%eax
    50e0:	e8 0b db ff ff       	callq  2bf0 <_Z16phLogFuncMessageP11phLogStruct11phLogType_tPKcz@plt>
    50e5:	b8 01 00 00 00       	mov    $0x1,%eax
    50ea:	eb 05                	jmp    50f1 <phFuncStripStart+0xee>
    50ec:	b8 00 00 00 00       	mov    $0x0,%eax
    50f1:	84 c0                	test   %al,%al
    50f3:	74 4c                	je     5141 <phFuncStripStart+0x13e>
    50f5:	48 8b 05 ec 85 20 00 	mov    0x2085ec(%rip),%rax        # 20d6e8 <_ZL17dummyReturnValues>
    50fc:	48 85 c0             	test   %rax,%rax
    50ff:	74 33                	je     5134 <phFuncStripStart+0x131>
    5101:	8b 15 ed 85 20 00    	mov    0x2085ed(%rip),%edx        # 20d6f4 <_ZL16dummyReturnIndex>
    5107:	8b 05 e3 85 20 00    	mov    0x2085e3(%rip),%eax        # 20d6f0 <_ZL16dummyReturnCount>
    510d:	39 c2                	cmp    %eax,%edx
    510f:	7d 23                	jge    5134 <phFuncStripStart+0x131>
    5111:	48 8b 0d d0 85 20 00 	mov    0x2085d0(%rip),%rcx        # 20d6e8 <_ZL17dummyReturnValues>
    5118:	8b 05 d6 85 20 00    	mov    0x2085d6(%rip),%eax        # 20d6f4 <_ZL16dummyReturnIndex>
    511e:	8d 50 01             	lea    0x1(%rax),%edx
    5121:	89 15 cd 85 20 00    	mov    %edx,0x2085cd(%rip)        # 20d6f4 <_ZL16dummyReturnIndex>
    5127:	48 98                	cltq   
    5129:	48 c1 e0 02          	shl    $0x2,%rax
    512d:	48 01 c8             	add    %rcx,%rax
    5130:	8b 00                	mov    (%rax),%eax
    5132:	eb 05                	jmp    5139 <phFuncStripStart+0x136>
    5134:	b8 00 00 00 00       	mov    $0x0,%eax
    5139:	89 45 f8             	mov    %eax,-0x8(%rbp)
    513c:	8b 45 f8             	mov    -0x8(%rbp),%eax
    513f:	eb 3a                	jmp    517b <phFuncStripStart+0x178>
    5141:	48 8b 45 e0          	mov    -0x20(%rbp),%rax
    5145:	0f b6 00             	movzbl (%rax),%eax
    5148:	84 c0                	test   %al,%al
    514a:	74 1e                	je     516a <phFuncStripStart+0x167>
    514c:	48 8b 45 e0          	mov    -0x20(%rbp),%rax
    5150:	48 8d 35 42 59 00 00 	lea    0x5942(%rip),%rsi        # aa99 <_fini+0x148d>
    5157:	48 89 c7             	mov    %rax,%rdi
    515a:	e8 11 db ff ff       	callq  2c70 <strcasecmp@plt>
    515f:	85 c0                	test   %eax,%eax
    5161:	75 07                	jne    516a <phFuncStripStart+0x167>
    5163:	c7 45 fc 00 00 00 00 	movl   $0x0,-0x4(%rbp)
    516a:	8b 55 fc             	mov    -0x4(%rbp),%edx
    516d:	48 8b 45 e8          	mov    -0x18(%rbp),%rax
    5171:	89 d6                	mov    %edx,%esi
    5173:	48 89 c7             	mov    %rax,%rdi
    5176:	e8 75 dc ff ff       	callq  2df0 <_Z17privateStripStartP12phFuncStructi@plt>
    517b:	c9                   	leaveq 
    517c:	c3                   	retq   

000000000000517d <phFuncStripDone>:
    517d:	55                   	push   %rbp
    517e:	48 89 e5             	mov    %rsp,%rbp
    5181:	48 83 ec 20          	sub    $0x20,%rsp
    5185:	48 89 7d e8          	mov    %rdi,-0x18(%rbp)
    5189:	48 89 75 e0          	mov    %rsi,-0x20(%rbp)
    518d:	c7 45 fc 01 00 00 00 	movl   $0x1,-0x4(%rbp)
    5194:	48 8b 05 45 85 20 00 	mov    0x208545(%rip),%rax        # 20d6e0 <_ZL8myLogger>
    519b:	48 85 c0             	test   %rax,%rax
    519e:	75 0a                	jne    51aa <phFuncStripDone+0x2d>
    51a0:	b8 01 00 00 00       	mov    $0x1,%eax
    51a5:	e9 22 01 00 00       	jmpq   52cc <phFuncStripDone+0x14f>
    51aa:	48 8b 05 2f 85 20 00 	mov    0x20852f(%rip),%rax        # 20d6e0 <_ZL8myLogger>
    51b1:	48 8b 4d e0          	mov    -0x20(%rbp),%rcx
    51b5:	48 8b 55 e8          	mov    -0x18(%rbp),%rdx
    51b9:	49 89 c8             	mov    %rcx,%r8
    51bc:	48 89 d1             	mov    %rdx,%rcx
    51bf:	48 8d 15 ad 59 00 00 	lea    0x59ad(%rip),%rdx        # ab73 <_fini+0x1567>
    51c6:	be 03 00 00 00       	mov    $0x3,%esi
    51cb:	48 89 c7             	mov    %rax,%rdi
    51ce:	b8 00 00 00 00       	mov    $0x0,%eax
    51d3:	e8 18 da ff ff       	callq  2bf0 <_Z16phLogFuncMessageP11phLogStruct11phLogType_tPKcz@plt>
    51d8:	48 83 7d e8 00       	cmpq   $0x0,-0x18(%rbp)
    51dd:	74 0d                	je     51ec <phFuncStripDone+0x6f>
    51df:	48 8b 45 e8          	mov    -0x18(%rbp),%rax
    51e3:	48 8b 00             	mov    (%rax),%rax
    51e6:	48 3b 45 e8          	cmp    -0x18(%rbp),%rax
    51ea:	74 0a                	je     51f6 <phFuncStripDone+0x79>
    51ec:	b8 02 00 00 00       	mov    $0x2,%eax
    51f1:	e9 d6 00 00 00       	jmpq   52cc <phFuncStripDone+0x14f>
    51f6:	48 8b 45 e8          	mov    -0x18(%rbp),%rax
    51fa:	be 00 00 00 08       	mov    $0x8000000,%esi
    51ff:	48 89 c7             	mov    %rax,%rdi
    5202:	e8 5e df ff ff       	callq  3165 <_ZL12RememberCallP12phFuncStruct20phFuncAvailability_t>
    5207:	48 8b 45 e8          	mov    -0x18(%rbp),%rax
    520b:	8b 40 30             	mov    0x30(%rax),%eax
    520e:	85 c0                	test   %eax,%eax
    5210:	74 22                	je     5234 <phFuncStripDone+0xb7>
    5212:	48 8b 05 c7 84 20 00 	mov    0x2084c7(%rip),%rax        # 20d6e0 <_ZL8myLogger>
    5219:	48 8d 15 70 59 00 00 	lea    0x5970(%rip),%rdx        # ab90 <_fini+0x1584>
    5220:	be 05 00 00 00       	mov    $0x5,%esi
    5225:	48 89 c7             	mov    %rax,%rdi
    5228:	b8 00 00 00 00       	mov    $0x0,%eax
    522d:	e8 be d9 ff ff       	callq  2bf0 <_Z16phLogFuncMessageP11phLogStruct11phLogType_tPKcz@plt>
    5232:	eb 2b                	jmp    525f <phFuncStripDone+0xe2>
    5234:	48 8b 45 e8          	mov    -0x18(%rbp),%rax
    5238:	8b 40 34             	mov    0x34(%rax),%eax
    523b:	85 c0                	test   %eax,%eax
    523d:	74 27                	je     5266 <phFuncStripDone+0xe9>
    523f:	48 8b 05 9a 84 20 00 	mov    0x20849a(%rip),%rax        # 20d6e0 <_ZL8myLogger>
    5246:	48 8d 15 6b 59 00 00 	lea    0x596b(%rip),%rdx        # abb8 <_fini+0x15ac>
    524d:	be 05 00 00 00       	mov    $0x5,%esi
    5252:	48 89 c7             	mov    %rax,%rdi
    5255:	b8 00 00 00 00       	mov    $0x0,%eax
    525a:	e8 91 d9 ff ff       	callq  2bf0 <_Z16phLogFuncMessageP11phLogStruct11phLogType_tPKcz@plt>
    525f:	b8 01 00 00 00       	mov    $0x1,%eax
    5264:	eb 05                	jmp    526b <phFuncStripDone+0xee>
    5266:	b8 00 00 00 00       	mov    $0x0,%eax
    526b:	84 c0                	test   %al,%al
    526d:	74 4c                	je     52bb <phFuncStripDone+0x13e>
    526f:	48 8b 05 72 84 20 00 	mov    0x208472(%rip),%rax        # 20d6e8 <_ZL17dummyReturnValues>
    5276:	48 85 c0             	test   %rax,%rax
    5279:	74 33                	je     52ae <phFuncStripDone+0x131>
    527b:	8b 15 73 84 20 00    	mov    0x208473(%rip),%edx        # 20d6f4 <_ZL16dummyReturnIndex>
    5281:	8b 05 69 84 20 00    	mov    0x208469(%rip),%eax        # 20d6f0 <_ZL16dummyReturnCount>
    5287:	39 c2                	cmp    %eax,%edx
    5289:	7d 23                	jge    52ae <phFuncStripDone+0x131>
    528b:	48 8b 0d 56 84 20 00 	mov    0x208456(%rip),%rcx        # 20d6e8 <_ZL17dummyReturnValues>
    5292:	8b 05 5c 84 20 00    	mov    0x20845c(%rip),%eax        # 20d6f4 <_ZL16dummyReturnIndex>
    5298:	8d 50 01             	lea    0x1(%rax),%edx
    529b:	89 15 53 84 20 00    	mov    %edx,0x208453(%rip)        # 20d6f4 <_ZL16dummyReturnIndex>
    52a1:	48 98                	cltq   
    52a3:	48 c1 e0 02          	shl    $0x2,%rax
    52a7:	48 01 c8             	add    %rcx,%rax
    52aa:	8b 00                	mov    (%rax),%eax
    52ac:	eb 05                	jmp    52b3 <phFuncStripDone+0x136>
    52ae:	b8 00 00 00 00       	mov    $0x0,%eax
    52b3:	89 45 f8             	mov    %eax,-0x8(%rbp)
    52b6:	8b 45 f8             	mov    -0x8(%rbp),%eax
    52b9:	eb 11                	jmp    52cc <phFuncStripDone+0x14f>
    52bb:	8b 55 fc             	mov    -0x4(%rbp),%edx
    52be:	48 8b 45 e8          	mov    -0x18(%rbp),%rax
    52c2:	89 d6                	mov    %edx,%esi
    52c4:	48 89 c7             	mov    %rax,%rdi
    52c7:	e8 34 d9 ff ff       	callq  2c00 <_Z16privateStripDoneP12phFuncStructi@plt>
    52cc:	c9                   	leaveq 
    52cd:	c3                   	retq   

00000000000052ce <phFuncGetStart>:
    52ce:	55                   	push   %rbp
    52cf:	48 89 e5             	mov    %rsp,%rbp
    52d2:	48 81 ec 30 10 00 00 	sub    $0x1030,%rsp
    52d9:	48 89 bd d8 ef ff ff 	mov    %rdi,-0x1028(%rbp)
    52e0:	48 8b 05 f9 83 20 00 	mov    0x2083f9(%rip),%rax        # 20d6e0 <_ZL8myLogger>
    52e7:	48 85 c0             	test   %rax,%rax
    52ea:	75 0a                	jne    52f6 <phFuncGetStart+0x28>
    52ec:	b8 01 00 00 00       	mov    $0x1,%eax
    52f1:	e9 e6 01 00 00       	jmpq   54dc <phFuncGetStart+0x20e>
    52f6:	48 8b 05 e3 83 20 00 	mov    0x2083e3(%rip),%rax        # 20d6e0 <_ZL8myLogger>
    52fd:	48 8b 95 d8 ef ff ff 	mov    -0x1028(%rbp),%rdx
    5304:	48 89 d1             	mov    %rdx,%rcx
    5307:	48 8d 15 cc 58 00 00 	lea    0x58cc(%rip),%rdx        # abda <_fini+0x15ce>
    530e:	be 03 00 00 00       	mov    $0x3,%esi
    5313:	48 89 c7             	mov    %rax,%rdi
    5316:	b8 00 00 00 00       	mov    $0x0,%eax
    531b:	e8 d0 d8 ff ff       	callq  2bf0 <_Z16phLogFuncMessageP11phLogStruct11phLogType_tPKcz@plt>
    5320:	48 83 bd d8 ef ff ff 	cmpq   $0x0,-0x1028(%rbp)
    5327:	00 
    5328:	74 13                	je     533d <phFuncGetStart+0x6f>
    532a:	48 8b 85 d8 ef ff ff 	mov    -0x1028(%rbp),%rax
    5331:	48 8b 00             	mov    (%rax),%rax
    5334:	48 3b 85 d8 ef ff ff 	cmp    -0x1028(%rbp),%rax
    533b:	74 0a                	je     5347 <phFuncGetStart+0x79>
    533d:	b8 02 00 00 00       	mov    $0x2,%eax
    5342:	e9 95 01 00 00       	jmpq   54dc <phFuncGetStart+0x20e>
    5347:	48 8b 85 d8 ef ff ff 	mov    -0x1028(%rbp),%rax
    534e:	be 20 00 00 00       	mov    $0x20,%esi
    5353:	48 89 c7             	mov    %rax,%rdi
    5356:	e8 0a de ff ff       	callq  3165 <_ZL12RememberCallP12phFuncStruct20phFuncAvailability_t>
    535b:	48 8b 85 d8 ef ff ff 	mov    -0x1028(%rbp),%rax
    5362:	8b 40 30             	mov    0x30(%rax),%eax
    5365:	85 c0                	test   %eax,%eax
    5367:	74 22                	je     538b <phFuncGetStart+0xbd>
    5369:	48 8b 05 70 83 20 00 	mov    0x208370(%rip),%rax        # 20d6e0 <_ZL8myLogger>
    5370:	48 8d 15 79 58 00 00 	lea    0x5879(%rip),%rdx        # abf0 <_fini+0x15e4>
    5377:	be 05 00 00 00       	mov    $0x5,%esi
    537c:	48 89 c7             	mov    %rax,%rdi
    537f:	b8 00 00 00 00       	mov    $0x0,%eax
    5384:	e8 67 d8 ff ff       	callq  2bf0 <_Z16phLogFuncMessageP11phLogStruct11phLogType_tPKcz@plt>
    5389:	eb 2e                	jmp    53b9 <phFuncGetStart+0xeb>
    538b:	48 8b 85 d8 ef ff ff 	mov    -0x1028(%rbp),%rax
    5392:	8b 40 34             	mov    0x34(%rax),%eax
    5395:	85 c0                	test   %eax,%eax
    5397:	74 27                	je     53c0 <phFuncGetStart+0xf2>
    5399:	48 8b 05 40 83 20 00 	mov    0x208340(%rip),%rax        # 20d6e0 <_ZL8myLogger>
    53a0:	48 8d 15 71 58 00 00 	lea    0x5871(%rip),%rdx        # ac18 <_fini+0x160c>
    53a7:	be 05 00 00 00       	mov    $0x5,%esi
    53ac:	48 89 c7             	mov    %rax,%rdi
    53af:	b8 00 00 00 00       	mov    $0x0,%eax
    53b4:	e8 37 d8 ff ff       	callq  2bf0 <_Z16phLogFuncMessageP11phLogStruct11phLogType_tPKcz@plt>
    53b9:	b8 01 00 00 00       	mov    $0x1,%eax
    53be:	eb 05                	jmp    53c5 <phFuncGetStart+0xf7>
    53c0:	b8 00 00 00 00       	mov    $0x0,%eax
    53c5:	84 c0                	test   %al,%al
    53c7:	0f 84 00 01 00 00    	je     54cd <phFuncGetStart+0x1ff>
    53cd:	48 8b 05 14 83 20 00 	mov    0x208314(%rip),%rax        # 20d6e8 <_ZL17dummyReturnValues>
    53d4:	48 85 c0             	test   %rax,%rax
    53d7:	74 33                	je     540c <phFuncGetStart+0x13e>
    53d9:	8b 15 15 83 20 00    	mov    0x208315(%rip),%edx        # 20d6f4 <_ZL16dummyReturnIndex>
    53df:	8b 05 0b 83 20 00    	mov    0x20830b(%rip),%eax        # 20d6f0 <_ZL16dummyReturnCount>
    53e5:	39 c2                	cmp    %eax,%edx
    53e7:	7d 23                	jge    540c <phFuncGetStart+0x13e>
    53e9:	48 8b 0d f8 82 20 00 	mov    0x2082f8(%rip),%rcx        # 20d6e8 <_ZL17dummyReturnValues>
    53f0:	8b 05 fe 82 20 00    	mov    0x2082fe(%rip),%eax        # 20d6f4 <_ZL16dummyReturnIndex>
    53f6:	8d 50 01             	lea    0x1(%rax),%edx
    53f9:	89 15 f5 82 20 00    	mov    %edx,0x2082f5(%rip)        # 20d6f4 <_ZL16dummyReturnIndex>
    53ff:	48 98                	cltq   
    5401:	48 c1 e0 02          	shl    $0x2,%rax
    5405:	48 01 c8             	add    %rcx,%rax
    5408:	8b 00                	mov    (%rax),%eax
    540a:	eb 05                	jmp    5411 <phFuncGetStart+0x143>
    540c:	b8 00 00 00 00       	mov    $0x0,%eax
    5411:	89 45 f8             	mov    %eax,-0x8(%rbp)
    5414:	83 7d f8 00          	cmpl   $0x0,-0x8(%rbp)
    5418:	0f 85 aa 00 00 00    	jne    54c8 <phFuncGetStart+0x1fa>
    541e:	48 8b 85 d8 ef ff ff 	mov    -0x1028(%rbp),%rax
    5425:	48 8b 40 28          	mov    0x28(%rax),%rax
    5429:	48 8d 55 ec          	lea    -0x14(%rbp),%rdx
    542d:	48 8d 4d f0          	lea    -0x10(%rbp),%rcx
    5431:	48 89 ce             	mov    %rcx,%rsi
    5434:	48 89 c7             	mov    %rax,%rdi
    5437:	e8 94 da ff ff       	callq  2ed0 <_Z20phEstateAGetSiteInfoP14phEstateStructPP19phEstateSiteUsage_tPi@plt>
    543c:	c7 45 fc 00 00 00 00 	movl   $0x0,-0x4(%rbp)
    5443:	eb 4d                	jmp    5492 <phFuncGetStart+0x1c4>
    5445:	48 8b 45 f0          	mov    -0x10(%rbp),%rax
    5449:	8b 55 fc             	mov    -0x4(%rbp),%edx
    544c:	48 63 d2             	movslq %edx,%rdx
    544f:	48 c1 e2 02          	shl    $0x2,%rdx
    5453:	48 01 d0             	add    %rdx,%rax
    5456:	8b 00                	mov    (%rax),%eax
    5458:	83 f8 01             	cmp    $0x1,%eax
    545b:	75 12                	jne    546f <phFuncGetStart+0x1a1>
    545d:	8b 45 fc             	mov    -0x4(%rbp),%eax
    5460:	48 98                	cltq   
    5462:	c7 84 85 e0 ef ff ff 	movl   $0x0,-0x1020(%rbp,%rax,4)
    5469:	00 00 00 00 
    546d:	eb 1f                	jmp    548e <phFuncGetStart+0x1c0>
    546f:	48 8b 45 f0          	mov    -0x10(%rbp),%rax
    5473:	8b 55 fc             	mov    -0x4(%rbp),%edx
    5476:	48 63 d2             	movslq %edx,%rdx
    5479:	48 c1 e2 02          	shl    $0x2,%rdx
    547d:	48 01 d0             	add    %rdx,%rax
    5480:	8b 10                	mov    (%rax),%edx
    5482:	8b 45 fc             	mov    -0x4(%rbp),%eax
    5485:	48 98                	cltq   
    5487:	89 94 85 e0 ef ff ff 	mov    %edx,-0x1020(%rbp,%rax,4)
    548e:	83 45 fc 01          	addl   $0x1,-0x4(%rbp)
    5492:	48 8b 85 d8 ef ff ff 	mov    -0x1028(%rbp),%rax
    5499:	8b 40 50             	mov    0x50(%rax),%eax
    549c:	3b 45 fc             	cmp    -0x4(%rbp),%eax
    549f:	7f a4                	jg     5445 <phFuncGetStart+0x177>
    54a1:	48 8b 85 d8 ef ff ff 	mov    -0x1028(%rbp),%rax
    54a8:	8b 50 50             	mov    0x50(%rax),%edx
    54ab:	48 8b 85 d8 ef ff ff 	mov    -0x1028(%rbp),%rax
    54b2:	48 8b 40 28          	mov    0x28(%rax),%rax
    54b6:	48 8d 8d e0 ef ff ff 	lea    -0x1020(%rbp),%rcx
    54bd:	48 89 ce             	mov    %rcx,%rsi
    54c0:	48 89 c7             	mov    %rax,%rdi
    54c3:	e8 48 d9 ff ff       	callq  2e10 <_Z20phEstateASetSiteInfoP14phEstateStructP19phEstateSiteUsage_ti@plt>
    54c8:	8b 45 f8             	mov    -0x8(%rbp),%eax
    54cb:	eb 0f                	jmp    54dc <phFuncGetStart+0x20e>
    54cd:	48 8b 85 d8 ef ff ff 	mov    -0x1028(%rbp),%rax
    54d4:	48 89 c7             	mov    %rax,%rdi
    54d7:	e8 a4 d9 ff ff       	callq  2e80 <_Z15privateGetStartP12phFuncStruct@plt>
    54dc:	c9                   	leaveq 
    54dd:	c3                   	retq   

00000000000054de <phFuncBinDevice>:
    54de:	55                   	push   %rbp
    54df:	48 89 e5             	mov    %rsp,%rbp
    54e2:	48 81 ec 30 10 00 00 	sub    $0x1030,%rsp
    54e9:	48 89 bd d8 ef ff ff 	mov    %rdi,-0x1028(%rbp)
    54f0:	48 89 b5 d0 ef ff ff 	mov    %rsi,-0x1030(%rbp)
    54f7:	48 8b 05 e2 81 20 00 	mov    0x2081e2(%rip),%rax        # 20d6e0 <_ZL8myLogger>
    54fe:	48 85 c0             	test   %rax,%rax
    5501:	75 0a                	jne    550d <phFuncBinDevice+0x2f>
    5503:	b8 01 00 00 00       	mov    $0x1,%eax
    5508:	e9 0e 02 00 00       	jmpq   571b <phFuncBinDevice+0x23d>
    550d:	48 83 bd d8 ef ff ff 	cmpq   $0x0,-0x1028(%rbp)
    5514:	00 
    5515:	74 13                	je     552a <phFuncBinDevice+0x4c>
    5517:	48 8b 85 d8 ef ff ff 	mov    -0x1028(%rbp),%rax
    551e:	48 8b 00             	mov    (%rax),%rax
    5521:	48 3b 85 d8 ef ff ff 	cmp    -0x1028(%rbp),%rax
    5528:	74 0a                	je     5534 <phFuncBinDevice+0x56>
    552a:	b8 02 00 00 00       	mov    $0x2,%eax
    552f:	e9 e7 01 00 00       	jmpq   571b <phFuncBinDevice+0x23d>
    5534:	48 8b 85 d8 ef ff ff 	mov    -0x1028(%rbp),%rax
    553b:	8b 40 50             	mov    0x50(%rax),%eax
    553e:	48 8b 95 d0 ef ff ff 	mov    -0x1030(%rbp),%rdx
    5545:	48 89 d6             	mov    %rdx,%rsi
    5548:	89 c7                	mov    %eax,%edi
    554a:	e8 5e dc ff ff       	callq  31ad <_ZL13writeLongListiPl>
    554f:	48 89 c1             	mov    %rax,%rcx
    5552:	48 8b 05 87 81 20 00 	mov    0x208187(%rip),%rax        # 20d6e0 <_ZL8myLogger>
    5559:	48 8b 95 d8 ef ff ff 	mov    -0x1028(%rbp),%rdx
    5560:	49 89 c8             	mov    %rcx,%r8
    5563:	48 89 d1             	mov    %rdx,%rcx
    5566:	48 8d 15 ca 56 00 00 	lea    0x56ca(%rip),%rdx        # ac37 <_fini+0x162b>
    556d:	be 03 00 00 00       	mov    $0x3,%esi
    5572:	48 89 c7             	mov    %rax,%rdi
    5575:	b8 00 00 00 00       	mov    $0x0,%eax
    557a:	e8 71 d6 ff ff       	callq  2bf0 <_Z16phLogFuncMessageP11phLogStruct11phLogType_tPKcz@plt>
    557f:	48 8b 85 d8 ef ff ff 	mov    -0x1028(%rbp),%rax
    5586:	be 40 00 00 00       	mov    $0x40,%esi
    558b:	48 89 c7             	mov    %rax,%rdi
    558e:	e8 d2 db ff ff       	callq  3165 <_ZL12RememberCallP12phFuncStruct20phFuncAvailability_t>
    5593:	48 8b 85 d8 ef ff ff 	mov    -0x1028(%rbp),%rax
    559a:	8b 40 30             	mov    0x30(%rax),%eax
    559d:	85 c0                	test   %eax,%eax
    559f:	74 22                	je     55c3 <phFuncBinDevice+0xe5>
    55a1:	48 8b 05 38 81 20 00 	mov    0x208138(%rip),%rax        # 20d6e0 <_ZL8myLogger>
    55a8:	48 8d 15 a1 56 00 00 	lea    0x56a1(%rip),%rdx        # ac50 <_fini+0x1644>
    55af:	be 05 00 00 00       	mov    $0x5,%esi
    55b4:	48 89 c7             	mov    %rax,%rdi
    55b7:	b8 00 00 00 00       	mov    $0x0,%eax
    55bc:	e8 2f d6 ff ff       	callq  2bf0 <_Z16phLogFuncMessageP11phLogStruct11phLogType_tPKcz@plt>
    55c1:	eb 2e                	jmp    55f1 <phFuncBinDevice+0x113>
    55c3:	48 8b 85 d8 ef ff ff 	mov    -0x1028(%rbp),%rax
    55ca:	8b 40 34             	mov    0x34(%rax),%eax
    55cd:	85 c0                	test   %eax,%eax
    55cf:	74 27                	je     55f8 <phFuncBinDevice+0x11a>
    55d1:	48 8b 05 08 81 20 00 	mov    0x208108(%rip),%rax        # 20d6e0 <_ZL8myLogger>
    55d8:	48 8d 15 99 56 00 00 	lea    0x5699(%rip),%rdx        # ac78 <_fini+0x166c>
    55df:	be 05 00 00 00       	mov    $0x5,%esi
    55e4:	48 89 c7             	mov    %rax,%rdi
    55e7:	b8 00 00 00 00       	mov    $0x0,%eax
    55ec:	e8 ff d5 ff ff       	callq  2bf0 <_Z16phLogFuncMessageP11phLogStruct11phLogType_tPKcz@plt>
    55f1:	b8 01 00 00 00       	mov    $0x1,%eax
    55f6:	eb 05                	jmp    55fd <phFuncBinDevice+0x11f>
    55f8:	b8 00 00 00 00       	mov    $0x0,%eax
    55fd:	84 c0                	test   %al,%al
    55ff:	0f 84 fd 00 00 00    	je     5702 <phFuncBinDevice+0x224>
    5605:	48 8b 05 dc 80 20 00 	mov    0x2080dc(%rip),%rax        # 20d6e8 <_ZL17dummyReturnValues>
    560c:	48 85 c0             	test   %rax,%rax
    560f:	74 33                	je     5644 <phFuncBinDevice+0x166>
    5611:	8b 15 dd 80 20 00    	mov    0x2080dd(%rip),%edx        # 20d6f4 <_ZL16dummyReturnIndex>
    5617:	8b 05 d3 80 20 00    	mov    0x2080d3(%rip),%eax        # 20d6f0 <_ZL16dummyReturnCount>
    561d:	39 c2                	cmp    %eax,%edx
    561f:	7d 23                	jge    5644 <phFuncBinDevice+0x166>
    5621:	48 8b 0d c0 80 20 00 	mov    0x2080c0(%rip),%rcx        # 20d6e8 <_ZL17dummyReturnValues>
    5628:	8b 05 c6 80 20 00    	mov    0x2080c6(%rip),%eax        # 20d6f4 <_ZL16dummyReturnIndex>
    562e:	8d 50 01             	lea    0x1(%rax),%edx
    5631:	89 15 bd 80 20 00    	mov    %edx,0x2080bd(%rip)        # 20d6f4 <_ZL16dummyReturnIndex>
    5637:	48 98                	cltq   
    5639:	48 c1 e0 02          	shl    $0x2,%rax
    563d:	48 01 c8             	add    %rcx,%rax
    5640:	8b 00                	mov    (%rax),%eax
    5642:	eb 05                	jmp    5649 <phFuncBinDevice+0x16b>
    5644:	b8 00 00 00 00       	mov    $0x0,%eax
    5649:	89 45 f8             	mov    %eax,-0x8(%rbp)
    564c:	83 7d f8 00          	cmpl   $0x0,-0x8(%rbp)
    5650:	0f 85 a7 00 00 00    	jne    56fd <phFuncBinDevice+0x21f>
    5656:	48 8b 85 d8 ef ff ff 	mov    -0x1028(%rbp),%rax
    565d:	48 8b 40 28          	mov    0x28(%rax),%rax
    5661:	48 8d 55 ec          	lea    -0x14(%rbp),%rdx
    5665:	48 8d 4d f0          	lea    -0x10(%rbp),%rcx
    5669:	48 89 ce             	mov    %rcx,%rsi
    566c:	48 89 c7             	mov    %rax,%rdi
    566f:	e8 5c d8 ff ff       	callq  2ed0 <_Z20phEstateAGetSiteInfoP14phEstateStructPP19phEstateSiteUsage_tPi@plt>
    5674:	c7 45 fc 00 00 00 00 	movl   $0x0,-0x4(%rbp)
    567b:	eb 4a                	jmp    56c7 <phFuncBinDevice+0x1e9>
    567d:	48 8b 45 f0          	mov    -0x10(%rbp),%rax
    5681:	8b 55 fc             	mov    -0x4(%rbp),%edx
    5684:	48 63 d2             	movslq %edx,%rdx
    5687:	48 c1 e2 02          	shl    $0x2,%rdx
    568b:	48 01 d0             	add    %rdx,%rax
    568e:	8b 00                	mov    (%rax),%eax
    5690:	85 c0                	test   %eax,%eax
    5692:	78 2f                	js     56c3 <phFuncBinDevice+0x1e5>
    5694:	83 f8 01             	cmp    $0x1,%eax
    5697:	7e 07                	jle    56a0 <phFuncBinDevice+0x1c2>
    5699:	83 f8 03             	cmp    $0x3,%eax
    569c:	7f 25                	jg     56c3 <phFuncBinDevice+0x1e5>
    569e:	eb 12                	jmp    56b2 <phFuncBinDevice+0x1d4>
    56a0:	8b 45 fc             	mov    -0x4(%rbp),%eax
    56a3:	48 98                	cltq   
    56a5:	c7 84 85 e0 ef ff ff 	movl   $0x1,-0x1020(%rbp,%rax,4)
    56ac:	01 00 00 00 
    56b0:	eb 11                	jmp    56c3 <phFuncBinDevice+0x1e5>
    56b2:	8b 45 fc             	mov    -0x4(%rbp),%eax
    56b5:	48 98                	cltq   
    56b7:	c7 84 85 e0 ef ff ff 	movl   $0x2,-0x1020(%rbp,%rax,4)
    56be:	02 00 00 00 
    56c2:	90                   	nop
    56c3:	83 45 fc 01          	addl   $0x1,-0x4(%rbp)
    56c7:	48 8b 85 d8 ef ff ff 	mov    -0x1028(%rbp),%rax
    56ce:	8b 40 50             	mov    0x50(%rax),%eax
    56d1:	3b 45 fc             	cmp    -0x4(%rbp),%eax
    56d4:	7f a7                	jg     567d <phFuncBinDevice+0x19f>
    56d6:	48 8b 85 d8 ef ff ff 	mov    -0x1028(%rbp),%rax
    56dd:	8b 50 50             	mov    0x50(%rax),%edx
    56e0:	48 8b 85 d8 ef ff ff 	mov    -0x1028(%rbp),%rax
    56e7:	48 8b 40 28          	mov    0x28(%rax),%rax
    56eb:	48 8d 8d e0 ef ff ff 	lea    -0x1020(%rbp),%rcx
    56f2:	48 89 ce             	mov    %rcx,%rsi
    56f5:	48 89 c7             	mov    %rax,%rdi
    56f8:	e8 13 d7 ff ff       	callq  2e10 <_Z20phEstateASetSiteInfoP14phEstateStructP19phEstateSiteUsage_ti@plt>
    56fd:	8b 45 f8             	mov    -0x8(%rbp),%eax
    5700:	eb 19                	jmp    571b <phFuncBinDevice+0x23d>
    5702:	48 8b 95 d0 ef ff ff 	mov    -0x1030(%rbp),%rdx
    5709:	48 8b 85 d8 ef ff ff 	mov    -0x1028(%rbp),%rax
    5710:	48 89 d6             	mov    %rdx,%rsi
    5713:	48 89 c7             	mov    %rax,%rdi
    5716:	e8 a5 d7 ff ff       	callq  2ec0 <_Z16privateBinDeviceP12phFuncStructPl@plt>
    571b:	c9                   	leaveq 
    571c:	c3                   	retq   

000000000000571d <phFuncReprobe>:
    571d:	55                   	push   %rbp
    571e:	48 89 e5             	mov    %rsp,%rbp
    5721:	48 83 ec 20          	sub    $0x20,%rsp
    5725:	48 89 7d e8          	mov    %rdi,-0x18(%rbp)
    5729:	48 8b 05 b0 7f 20 00 	mov    0x207fb0(%rip),%rax        # 20d6e0 <_ZL8myLogger>
    5730:	48 85 c0             	test   %rax,%rax
    5733:	75 0a                	jne    573f <phFuncReprobe+0x22>
    5735:	b8 01 00 00 00       	mov    $0x1,%eax
    573a:	e9 16 01 00 00       	jmpq   5855 <phFuncReprobe+0x138>
    573f:	48 8b 05 9a 7f 20 00 	mov    0x207f9a(%rip),%rax        # 20d6e0 <_ZL8myLogger>
    5746:	48 8b 55 e8          	mov    -0x18(%rbp),%rdx
    574a:	48 89 d1             	mov    %rdx,%rcx
    574d:	48 8d 15 43 55 00 00 	lea    0x5543(%rip),%rdx        # ac97 <_fini+0x168b>
    5754:	be 03 00 00 00       	mov    $0x3,%esi
    5759:	48 89 c7             	mov    %rax,%rdi
    575c:	b8 00 00 00 00       	mov    $0x0,%eax
    5761:	e8 8a d4 ff ff       	callq  2bf0 <_Z16phLogFuncMessageP11phLogStruct11phLogType_tPKcz@plt>
    5766:	48 83 7d e8 00       	cmpq   $0x0,-0x18(%rbp)
    576b:	74 0d                	je     577a <phFuncReprobe+0x5d>
    576d:	48 8b 45 e8          	mov    -0x18(%rbp),%rax
    5771:	48 8b 00             	mov    (%rax),%rax
    5774:	48 3b 45 e8          	cmp    -0x18(%rbp),%rax
    5778:	74 0a                	je     5784 <phFuncReprobe+0x67>
    577a:	b8 02 00 00 00       	mov    $0x2,%eax
    577f:	e9 d1 00 00 00       	jmpq   5855 <phFuncReprobe+0x138>
    5784:	48 8b 45 e8          	mov    -0x18(%rbp),%rax
    5788:	be 80 00 00 00       	mov    $0x80,%esi
    578d:	48 89 c7             	mov    %rax,%rdi
    5790:	e8 d0 d9 ff ff       	callq  3165 <_ZL12RememberCallP12phFuncStruct20phFuncAvailability_t>
    5795:	48 8b 45 e8          	mov    -0x18(%rbp),%rax
    5799:	8b 40 30             	mov    0x30(%rax),%eax
    579c:	85 c0                	test   %eax,%eax
    579e:	74 22                	je     57c2 <phFuncReprobe+0xa5>
    57a0:	48 8b 05 39 7f 20 00 	mov    0x207f39(%rip),%rax        # 20d6e0 <_ZL8myLogger>
    57a7:	48 8d 15 02 55 00 00 	lea    0x5502(%rip),%rdx        # acb0 <_fini+0x16a4>
    57ae:	be 05 00 00 00       	mov    $0x5,%esi
    57b3:	48 89 c7             	mov    %rax,%rdi
    57b6:	b8 00 00 00 00       	mov    $0x0,%eax
    57bb:	e8 30 d4 ff ff       	callq  2bf0 <_Z16phLogFuncMessageP11phLogStruct11phLogType_tPKcz@plt>
    57c0:	eb 2b                	jmp    57ed <phFuncReprobe+0xd0>
    57c2:	48 8b 45 e8          	mov    -0x18(%rbp),%rax
    57c6:	8b 40 34             	mov    0x34(%rax),%eax
    57c9:	85 c0                	test   %eax,%eax
    57cb:	74 27                	je     57f4 <phFuncReprobe+0xd7>
    57cd:	48 8b 05 0c 7f 20 00 	mov    0x207f0c(%rip),%rax        # 20d6e0 <_ZL8myLogger>
    57d4:	48 8d 15 fd 54 00 00 	lea    0x54fd(%rip),%rdx        # acd8 <_fini+0x16cc>
    57db:	be 05 00 00 00       	mov    $0x5,%esi
    57e0:	48 89 c7             	mov    %rax,%rdi
    57e3:	b8 00 00 00 00       	mov    $0x0,%eax
    57e8:	e8 03 d4 ff ff       	callq  2bf0 <_Z16phLogFuncMessageP11phLogStruct11phLogType_tPKcz@plt>
    57ed:	b8 01 00 00 00       	mov    $0x1,%eax
    57f2:	eb 05                	jmp    57f9 <phFuncReprobe+0xdc>
    57f4:	b8 00 00 00 00       	mov    $0x0,%eax
    57f9:	84 c0                	test   %al,%al
    57fb:	74 4c                	je     5849 <phFuncReprobe+0x12c>
    57fd:	48 8b 05 e4 7e 20 00 	mov    0x207ee4(%rip),%rax        # 20d6e8 <_ZL17dummyReturnValues>
    5804:	48 85 c0             	test   %rax,%rax
    5807:	74 33                	je     583c <phFuncReprobe+0x11f>
    5809:	8b 15 e5 7e 20 00    	mov    0x207ee5(%rip),%edx        # 20d6f4 <_ZL16dummyReturnIndex>
    580f:	8b 05 db 7e 20 00    	mov    0x207edb(%rip),%eax        # 20d6f0 <_ZL16dummyReturnCount>
    5815:	39 c2                	cmp    %eax,%edx
    5817:	7d 23                	jge    583c <phFuncReprobe+0x11f>
    5819:	48 8b 0d c8 7e 20 00 	mov    0x207ec8(%rip),%rcx        # 20d6e8 <_ZL17dummyReturnValues>
    5820:	8b 05 ce 7e 20 00    	mov    0x207ece(%rip),%eax        # 20d6f4 <_ZL16dummyReturnIndex>
    5826:	8d 50 01             	lea    0x1(%rax),%edx
    5829:	89 15 c5 7e 20 00    	mov    %edx,0x207ec5(%rip)        # 20d6f4 <_ZL16dummyReturnIndex>
    582f:	48 98                	cltq   
    5831:	48 c1 e0 02          	shl    $0x2,%rax
    5835:	48 01 c8             	add    %rcx,%rax
    5838:	8b 00                	mov    (%rax),%eax
    583a:	eb 05                	jmp    5841 <phFuncReprobe+0x124>
    583c:	b8 00 00 00 00       	mov    $0x0,%eax
    5841:	89 45 fc             	mov    %eax,-0x4(%rbp)
    5844:	8b 45 fc             	mov    -0x4(%rbp),%eax
    5847:	eb 0c                	jmp    5855 <phFuncReprobe+0x138>
    5849:	48 8b 45 e8          	mov    -0x18(%rbp),%rax
    584d:	48 89 c7             	mov    %rax,%rdi
    5850:	e8 1b d6 ff ff       	callq  2e70 <_Z14privateReprobeP12phFuncStruct@plt>
    5855:	c9                   	leaveq 
    5856:	c3                   	retq   

0000000000005857 <phFuncBinReprobe>:
    5857:	55                   	push   %rbp
    5858:	48 89 e5             	mov    %rsp,%rbp
    585b:	53                   	push   %rbx
    585c:	48 81 ec 48 10 00 00 	sub    $0x1048,%rsp
    5863:	48 89 bd c8 ef ff ff 	mov    %rdi,-0x1038(%rbp)
    586a:	48 89 b5 c0 ef ff ff 	mov    %rsi,-0x1040(%rbp)
    5871:	48 89 95 b8 ef ff ff 	mov    %rdx,-0x1048(%rbp)
    5878:	48 8b 05 61 7e 20 00 	mov    0x207e61(%rip),%rax        # 20d6e0 <_ZL8myLogger>
    587f:	48 85 c0             	test   %rax,%rax
    5882:	75 0a                	jne    588e <phFuncBinReprobe+0x37>
    5884:	b8 01 00 00 00       	mov    $0x1,%eax
    5889:	e9 7d 02 00 00       	jmpq   5b0b <phFuncBinReprobe+0x2b4>
    588e:	48 8b 85 c8 ef ff ff 	mov    -0x1038(%rbp),%rax
    5895:	8b 40 50             	mov    0x50(%rax),%eax
    5898:	48 8b 95 b8 ef ff ff 	mov    -0x1048(%rbp),%rdx
    589f:	48 89 d6             	mov    %rdx,%rsi
    58a2:	89 c7                	mov    %eax,%edi
    58a4:	e8 04 d9 ff ff       	callq  31ad <_ZL13writeLongListiPl>
    58a9:	48 89 c3             	mov    %rax,%rbx
    58ac:	48 8b 85 c8 ef ff ff 	mov    -0x1038(%rbp),%rax
    58b3:	8b 40 50             	mov    0x50(%rax),%eax
    58b6:	48 8b 95 c0 ef ff ff 	mov    -0x1040(%rbp),%rdx
    58bd:	48 89 d6             	mov    %rdx,%rsi
    58c0:	89 c7                	mov    %eax,%edi
    58c2:	e8 e6 d8 ff ff       	callq  31ad <_ZL13writeLongListiPl>
    58c7:	48 89 c1             	mov    %rax,%rcx
    58ca:	48 8b 05 0f 7e 20 00 	mov    0x207e0f(%rip),%rax        # 20d6e0 <_ZL8myLogger>
    58d1:	48 8b 95 c8 ef ff ff 	mov    -0x1038(%rbp),%rdx
    58d8:	49 89 d9             	mov    %rbx,%r9
    58db:	49 89 c8             	mov    %rcx,%r8
    58de:	48 89 d1             	mov    %rdx,%rcx
    58e1:	48 8d 15 0f 54 00 00 	lea    0x540f(%rip),%rdx        # acf7 <_fini+0x16eb>
    58e8:	be 03 00 00 00       	mov    $0x3,%esi
    58ed:	48 89 c7             	mov    %rax,%rdi
    58f0:	b8 00 00 00 00       	mov    $0x0,%eax
    58f5:	e8 f6 d2 ff ff       	callq  2bf0 <_Z16phLogFuncMessageP11phLogStruct11phLogType_tPKcz@plt>
    58fa:	48 83 bd c8 ef ff ff 	cmpq   $0x0,-0x1038(%rbp)
    5901:	00 
    5902:	74 13                	je     5917 <phFuncBinReprobe+0xc0>
    5904:	48 8b 85 c8 ef ff ff 	mov    -0x1038(%rbp),%rax
    590b:	48 8b 00             	mov    (%rax),%rax
    590e:	48 3b 85 c8 ef ff ff 	cmp    -0x1038(%rbp),%rax
    5915:	74 0a                	je     5921 <phFuncBinReprobe+0xca>
    5917:	b8 02 00 00 00       	mov    $0x2,%eax
    591c:	e9 ea 01 00 00       	jmpq   5b0b <phFuncBinReprobe+0x2b4>
    5921:	48 8b 85 c8 ef ff ff 	mov    -0x1038(%rbp),%rax
    5928:	be 80 00 00 00       	mov    $0x80,%esi
    592d:	48 89 c7             	mov    %rax,%rdi
    5930:	e8 30 d8 ff ff       	callq  3165 <_ZL12RememberCallP12phFuncStruct20phFuncAvailability_t>
    5935:	48 8b 85 c8 ef ff ff 	mov    -0x1038(%rbp),%rax
    593c:	8b 40 30             	mov    0x30(%rax),%eax
    593f:	85 c0                	test   %eax,%eax
    5941:	74 22                	je     5965 <phFuncBinReprobe+0x10e>
    5943:	48 8b 05 96 7d 20 00 	mov    0x207d96(%rip),%rax        # 20d6e0 <_ZL8myLogger>
    594a:	48 8d 15 c7 53 00 00 	lea    0x53c7(%rip),%rdx        # ad18 <_fini+0x170c>
    5951:	be 05 00 00 00       	mov    $0x5,%esi
    5956:	48 89 c7             	mov    %rax,%rdi
    5959:	b8 00 00 00 00       	mov    $0x0,%eax
    595e:	e8 8d d2 ff ff       	callq  2bf0 <_Z16phLogFuncMessageP11phLogStruct11phLogType_tPKcz@plt>
    5963:	eb 2e                	jmp    5993 <phFuncBinReprobe+0x13c>
    5965:	48 8b 85 c8 ef ff ff 	mov    -0x1038(%rbp),%rax
    596c:	8b 40 34             	mov    0x34(%rax),%eax
    596f:	85 c0                	test   %eax,%eax
    5971:	74 27                	je     599a <phFuncBinReprobe+0x143>
    5973:	48 8b 05 66 7d 20 00 	mov    0x207d66(%rip),%rax        # 20d6e0 <_ZL8myLogger>
    597a:	48 8d 15 bf 53 00 00 	lea    0x53bf(%rip),%rdx        # ad40 <_fini+0x1734>
    5981:	be 05 00 00 00       	mov    $0x5,%esi
    5986:	48 89 c7             	mov    %rax,%rdi
    5989:	b8 00 00 00 00       	mov    $0x0,%eax
    598e:	e8 5d d2 ff ff       	callq  2bf0 <_Z16phLogFuncMessageP11phLogStruct11phLogType_tPKcz@plt>
    5993:	b8 01 00 00 00       	mov    $0x1,%eax
    5998:	eb 05                	jmp    599f <phFuncBinReprobe+0x148>
    599a:	b8 00 00 00 00       	mov    $0x0,%eax
    599f:	84 c0                	test   %al,%al
    59a1:	0f 84 44 01 00 00    	je     5aeb <phFuncBinReprobe+0x294>
    59a7:	48 8b 05 3a 7d 20 00 	mov    0x207d3a(%rip),%rax        # 20d6e8 <_ZL17dummyReturnValues>
    59ae:	48 85 c0             	test   %rax,%rax
    59b1:	74 33                	je     59e6 <phFuncBinReprobe+0x18f>
    59b3:	8b 15 3b 7d 20 00    	mov    0x207d3b(%rip),%edx        # 20d6f4 <_ZL16dummyReturnIndex>
    59b9:	8b 05 31 7d 20 00    	mov    0x207d31(%rip),%eax        # 20d6f0 <_ZL16dummyReturnCount>
    59bf:	39 c2                	cmp    %eax,%edx
    59c1:	7d 23                	jge    59e6 <phFuncBinReprobe+0x18f>
    59c3:	48 8b 0d 1e 7d 20 00 	mov    0x207d1e(%rip),%rcx        # 20d6e8 <_ZL17dummyReturnValues>
    59ca:	8b 05 24 7d 20 00    	mov    0x207d24(%rip),%eax        # 20d6f4 <_ZL16dummyReturnIndex>
    59d0:	8d 50 01             	lea    0x1(%rax),%edx
    59d3:	89 15 1b 7d 20 00    	mov    %edx,0x207d1b(%rip)        # 20d6f4 <_ZL16dummyReturnIndex>
    59d9:	48 98                	cltq   
    59db:	48 c1 e0 02          	shl    $0x2,%rax
    59df:	48 01 c8             	add    %rcx,%rax
    59e2:	8b 00                	mov    (%rax),%eax
    59e4:	eb 05                	jmp    59eb <phFuncBinReprobe+0x194>
    59e6:	b8 00 00 00 00       	mov    $0x0,%eax
    59eb:	89 45 e8             	mov    %eax,-0x18(%rbp)
    59ee:	83 7d e8 00          	cmpl   $0x0,-0x18(%rbp)
    59f2:	0f 85 ee 00 00 00    	jne    5ae6 <phFuncBinReprobe+0x28f>
    59f8:	48 8b 85 c8 ef ff ff 	mov    -0x1038(%rbp),%rax
    59ff:	48 8b 40 28          	mov    0x28(%rax),%rax
    5a03:	48 8d 55 dc          	lea    -0x24(%rbp),%rdx
    5a07:	48 8d 4d e0          	lea    -0x20(%rbp),%rcx
    5a0b:	48 89 ce             	mov    %rcx,%rsi
    5a0e:	48 89 c7             	mov    %rax,%rdi
    5a11:	e8 ba d4 ff ff       	callq  2ed0 <_Z20phEstateAGetSiteInfoP14phEstateStructPP19phEstateSiteUsage_tPi@plt>
    5a16:	c7 45 ec 00 00 00 00 	movl   $0x0,-0x14(%rbp)
    5a1d:	e9 8a 00 00 00       	jmpq   5aac <phFuncBinReprobe+0x255>
    5a22:	8b 45 ec             	mov    -0x14(%rbp),%eax
    5a25:	48 98                	cltq   
    5a27:	48 8d 14 c5 00 00 00 	lea    0x0(,%rax,8),%rdx
    5a2e:	00 
    5a2f:	48 8b 85 c0 ef ff ff 	mov    -0x1040(%rbp),%rax
    5a36:	48 01 d0             	add    %rdx,%rax
    5a39:	48 8b 00             	mov    (%rax),%rax
    5a3c:	48 85 c0             	test   %rax,%rax
    5a3f:	75 48                	jne    5a89 <phFuncBinReprobe+0x232>
    5a41:	48 8b 45 e0          	mov    -0x20(%rbp),%rax
    5a45:	8b 55 ec             	mov    -0x14(%rbp),%edx
    5a48:	48 63 d2             	movslq %edx,%rdx
    5a4b:	48 c1 e2 02          	shl    $0x2,%rdx
    5a4f:	48 01 d0             	add    %rdx,%rax
    5a52:	8b 00                	mov    (%rax),%eax
    5a54:	85 c0                	test   %eax,%eax
    5a56:	78 50                	js     5aa8 <phFuncBinReprobe+0x251>
    5a58:	83 f8 01             	cmp    $0x1,%eax
    5a5b:	7e 07                	jle    5a64 <phFuncBinReprobe+0x20d>
    5a5d:	83 f8 03             	cmp    $0x3,%eax
    5a60:	7f 46                	jg     5aa8 <phFuncBinReprobe+0x251>
    5a62:	eb 12                	jmp    5a76 <phFuncBinReprobe+0x21f>
    5a64:	8b 45 ec             	mov    -0x14(%rbp),%eax
    5a67:	48 98                	cltq   
    5a69:	c7 84 85 d0 ef ff ff 	movl   $0x1,-0x1030(%rbp,%rax,4)
    5a70:	01 00 00 00 
    5a74:	eb 11                	jmp    5a87 <phFuncBinReprobe+0x230>
    5a76:	8b 45 ec             	mov    -0x14(%rbp),%eax
    5a79:	48 98                	cltq   
    5a7b:	c7 84 85 d0 ef ff ff 	movl   $0x2,-0x1030(%rbp,%rax,4)
    5a82:	02 00 00 00 
    5a86:	90                   	nop
    5a87:	eb 1f                	jmp    5aa8 <phFuncBinReprobe+0x251>
    5a89:	48 8b 45 e0          	mov    -0x20(%rbp),%rax
    5a8d:	8b 55 ec             	mov    -0x14(%rbp),%edx
    5a90:	48 63 d2             	movslq %edx,%rdx
    5a93:	48 c1 e2 02          	shl    $0x2,%rdx
    5a97:	48 01 d0             	add    %rdx,%rax
    5a9a:	8b 10                	mov    (%rax),%edx
    5a9c:	8b 45 ec             	mov    -0x14(%rbp),%eax
    5a9f:	48 98                	cltq   
    5aa1:	89 94 85 d0 ef ff ff 	mov    %edx,-0x1030(%rbp,%rax,4)
    5aa8:	83 45 ec 01          	addl   $0x1,-0x14(%rbp)
    5aac:	48 8b 85 c8 ef ff ff 	mov    -0x1038(%rbp),%rax
    5ab3:	8b 40 50             	mov    0x50(%rax),%eax
    5ab6:	3b 45 ec             	cmp    -0x14(%rbp),%eax
    5ab9:	0f 8f 63 ff ff ff    	jg     5a22 <phFuncBinReprobe+0x1cb>
    5abf:	48 8b 85 c8 ef ff ff 	mov    -0x1038(%rbp),%rax
    5ac6:	8b 50 50             	mov    0x50(%rax),%edx
    5ac9:	48 8b 85 c8 ef ff ff 	mov    -0x1038(%rbp),%rax
    5ad0:	48 8b 40 28          	mov    0x28(%rax),%rax
    5ad4:	48 8d 8d d0 ef ff ff 	lea    -0x1030(%rbp),%rcx
    5adb:	48 89 ce             	mov    %rcx,%rsi
    5ade:	48 89 c7             	mov    %rax,%rdi
    5ae1:	e8 2a d3 ff ff       	callq  2e10 <_Z20phEstateASetSiteInfoP14phEstateStructP19phEstateSiteUsage_ti@plt>
    5ae6:	8b 45 e8             	mov    -0x18(%rbp),%eax
    5ae9:	eb 20                	jmp    5b0b <phFuncBinReprobe+0x2b4>
    5aeb:	48 8b 95 b8 ef ff ff 	mov    -0x1048(%rbp),%rdx
    5af2:	48 8b 8d c0 ef ff ff 	mov    -0x1040(%rbp),%rcx
    5af9:	48 8b 85 c8 ef ff ff 	mov    -0x1038(%rbp),%rax
    5b00:	48 89 ce             	mov    %rcx,%rsi
    5b03:	48 89 c7             	mov    %rax,%rdi
    5b06:	e8 85 d3 ff ff       	callq  2e90 <_Z17privateBinReprobeP12phFuncStructPlS1_@plt>
    5b0b:	48 81 c4 48 10 00 00 	add    $0x1048,%rsp
    5b12:	5b                   	pop    %rbx
    5b13:	5d                   	pop    %rbp
    5b14:	c3                   	retq   

0000000000005b15 <_ZL13localDelay_usl>:
    5b15:	55                   	push   %rbp
    5b16:	48 89 e5             	mov    %rsp,%rbp
    5b19:	48 83 ec 30          	sub    $0x30,%rsp
    5b1d:	48 89 7d d8          	mov    %rdi,-0x28(%rbp)
    5b21:	48 81 7d d8 3f 42 0f 	cmpq   $0xf423f,-0x28(%rbp)
    5b28:	00 
    5b29:	7e 61                	jle    5b8c <_ZL13localDelay_usl+0x77>
    5b2b:	48 8b 4d d8          	mov    -0x28(%rbp),%rcx
    5b2f:	48 ba db 34 b6 d7 82 	movabs $0x431bde82d7b634db,%rdx
    5b36:	de 1b 43 
    5b39:	48 89 c8             	mov    %rcx,%rax
    5b3c:	48 f7 ea             	imul   %rdx
    5b3f:	48 c1 fa 12          	sar    $0x12,%rdx
    5b43:	48 89 c8             	mov    %rcx,%rax
    5b46:	48 c1 f8 3f          	sar    $0x3f,%rax
    5b4a:	48 29 c2             	sub    %rax,%rdx
    5b4d:	48 89 d0             	mov    %rdx,%rax
    5b50:	48 89 45 f8          	mov    %rax,-0x8(%rbp)
    5b54:	48 8b 4d d8          	mov    -0x28(%rbp),%rcx
    5b58:	48 ba db 34 b6 d7 82 	movabs $0x431bde82d7b634db,%rdx
    5b5f:	de 1b 43 
    5b62:	48 89 c8             	mov    %rcx,%rax
    5b65:	48 f7 ea             	imul   %rdx
    5b68:	48 c1 fa 12          	sar    $0x12,%rdx
    5b6c:	48 89 c8             	mov    %rcx,%rax
    5b6f:	48 c1 f8 3f          	sar    $0x3f,%rax
    5b73:	48 29 c2             	sub    %rax,%rdx
    5b76:	48 89 d0             	mov    %rdx,%rax
    5b79:	48 69 c0 40 42 0f 00 	imul   $0xf4240,%rax,%rax
    5b80:	48 29 c1             	sub    %rax,%rcx
    5b83:	48 89 c8             	mov    %rcx,%rax
    5b86:	48 89 45 d8          	mov    %rax,-0x28(%rbp)
    5b8a:	eb 08                	jmp    5b94 <_ZL13localDelay_usl+0x7f>
    5b8c:	48 c7 45 f8 00 00 00 	movq   $0x0,-0x8(%rbp)
    5b93:	00 
    5b94:	48 8b 45 f8          	mov    -0x8(%rbp),%rax
    5b98:	48 89 45 e0          	mov    %rax,-0x20(%rbp)
    5b9c:	48 8b 45 d8          	mov    -0x28(%rbp),%rax
    5ba0:	48 89 45 e8          	mov    %rax,-0x18(%rbp)
    5ba4:	48 8d 45 e0          	lea    -0x20(%rbp),%rax
    5ba8:	49 89 c0             	mov    %rax,%r8
    5bab:	b9 00 00 00 00       	mov    $0x0,%ecx
    5bb0:	ba 00 00 00 00       	mov    $0x0,%edx
    5bb5:	be 00 00 00 00       	mov    $0x0,%esi
    5bba:	bf 00 00 00 00       	mov    $0x0,%edi
    5bbf:	e8 9c d0 ff ff       	callq  2c60 <select@plt>
    5bc4:	83 f8 ff             	cmp    $0xffffffff,%eax
    5bc7:	75 13                	jne    5bdc <_ZL13localDelay_usl+0xc7>
    5bc9:	e8 12 d3 ff ff       	callq  2ee0 <__errno_location@plt>
    5bce:	8b 00                	mov    (%rax),%eax
    5bd0:	83 f8 04             	cmp    $0x4,%eax
    5bd3:	75 07                	jne    5bdc <_ZL13localDelay_usl+0xc7>
    5bd5:	b8 01 00 00 00       	mov    $0x1,%eax
    5bda:	eb 05                	jmp    5be1 <_ZL13localDelay_usl+0xcc>
    5bdc:	b8 00 00 00 00       	mov    $0x0,%eax
    5be1:	84 c0                	test   %al,%al
    5be3:	74 07                	je     5bec <_ZL13localDelay_usl+0xd7>
    5be5:	b8 00 00 00 00       	mov    $0x0,%eax
    5bea:	eb 05                	jmp    5bf1 <_ZL13localDelay_usl+0xdc>
    5bec:	b8 01 00 00 00       	mov    $0x1,%eax
    5bf1:	c9                   	leaveq 
    5bf2:	c3                   	retq   

0000000000005bf3 <_ZL13doReconfigureP12phFuncStruct>:
    5bf3:	55                   	push   %rbp
    5bf4:	48 89 e5             	mov    %rsp,%rbp
    5bf7:	48 89 7d f8          	mov    %rdi,-0x8(%rbp)
    5bfb:	b8 00 00 00 00       	mov    $0x0,%eax
    5c00:	5d                   	pop    %rbp
    5c01:	c3                   	retq   

0000000000005c02 <_ZL13parseSiteInfoP12phFuncStructPKcPiS3_S3_>:
    5c02:	55                   	push   %rbp
    5c03:	48 89 e5             	mov    %rsp,%rbp
    5c06:	41 54                	push   %r12
    5c08:	53                   	push   %rbx
    5c09:	48 81 ec 50 20 00 00 	sub    $0x2050,%rsp
    5c10:	48 89 bd c8 df ff ff 	mov    %rdi,-0x2038(%rbp)
    5c17:	48 89 b5 c0 df ff ff 	mov    %rsi,-0x2040(%rbp)
    5c1e:	48 89 95 b8 df ff ff 	mov    %rdx,-0x2048(%rbp)
    5c25:	48 89 8d b0 df ff ff 	mov    %rcx,-0x2050(%rbp)
    5c2c:	4c 89 85 a8 df ff ff 	mov    %r8,-0x2058(%rbp)
    5c33:	c7 45 dc 00 00 00 00 	movl   $0x0,-0x24(%rbp)
    5c3a:	48 83 bd c0 df ff ff 	cmpq   $0x0,-0x2040(%rbp)
    5c41:	00 
    5c42:	75 0a                	jne    5c4e <_ZL13parseSiteInfoP12phFuncStructPKcPiS3_S3_+0x4c>
    5c44:	b8 0e 00 00 00       	mov    $0xe,%eax
    5c49:	e9 81 03 00 00       	jmpq   5fcf <_ZL13parseSiteInfoP12phFuncStructPKcPiS3_S3_+0x3cd>
    5c4e:	48 8b 85 c8 df ff ff 	mov    -0x2038(%rbp),%rax
    5c55:	48 8b 40 10          	mov    0x10(%rax),%rax
    5c59:	48 8b 95 c0 df ff ff 	mov    -0x2040(%rbp),%rdx
    5c60:	48 89 d1             	mov    %rdx,%rcx
    5c63:	48 8d 15 d2 54 00 00 	lea    0x54d2(%rip),%rdx        # b13c <_fini+0x1b30>
    5c6a:	be 06 00 00 00       	mov    $0x6,%esi
    5c6f:	48 89 c7             	mov    %rax,%rdi
    5c72:	b8 00 00 00 00       	mov    $0x0,%eax
    5c77:	e8 74 cf ff ff       	callq  2bf0 <_Z16phLogFuncMessageP11phLogStruct11phLogType_tPKcz@plt>
    5c7c:	48 c7 85 d0 df ff ff 	movq   $0x0,-0x2030(%rbp)
    5c83:	00 00 00 00 
    5c87:	48 8d b5 d8 df ff ff 	lea    -0x2028(%rbp),%rsi
    5c8e:	b8 00 00 00 00       	mov    $0x0,%eax
    5c93:	ba ff 03 00 00       	mov    $0x3ff,%edx
    5c98:	48 89 f7             	mov    %rsi,%rdi
    5c9b:	48 89 d1             	mov    %rdx,%rcx
    5c9e:	f3 48 ab             	rep stos %rax,%es:(%rdi)
    5ca1:	48 8b 95 c0 df ff ff 	mov    -0x2040(%rbp),%rdx
    5ca8:	48 8d 85 d0 df ff ff 	lea    -0x2030(%rbp),%rax
    5caf:	48 89 d6             	mov    %rdx,%rsi
    5cb2:	48 89 c7             	mov    %rax,%rdi
    5cb5:	e8 66 d2 ff ff       	callq  2f20 <strcpy@plt>
    5cba:	48 8d 85 d0 df ff ff 	lea    -0x2030(%rbp),%rax
    5cc1:	48 8d 35 85 54 00 00 	lea    0x5485(%rip),%rsi        # b14d <_fini+0x1b41>
    5cc8:	48 89 c7             	mov    %rax,%rdi
    5ccb:	e8 70 d2 ff ff       	callq  2f40 <strtok@plt>
    5cd0:	48 89 45 e8          	mov    %rax,-0x18(%rbp)
    5cd4:	48 83 7d e8 00       	cmpq   $0x0,-0x18(%rbp)
    5cd9:	75 2e                	jne    5d09 <_ZL13parseSiteInfoP12phFuncStructPKcPiS3_S3_+0x107>
    5cdb:	48 8b 85 c8 df ff ff 	mov    -0x2038(%rbp),%rax
    5ce2:	48 8b 40 10          	mov    0x10(%rax),%rax
    5ce6:	48 8d 15 63 54 00 00 	lea    0x5463(%rip),%rdx        # b150 <_fini+0x1b44>
    5ced:	be 01 00 00 00       	mov    $0x1,%esi
    5cf2:	48 89 c7             	mov    %rax,%rdi
    5cf5:	b8 00 00 00 00       	mov    $0x0,%eax
    5cfa:	e8 f1 ce ff ff       	callq  2bf0 <_Z16phLogFuncMessageP11phLogStruct11phLogType_tPKcz@plt>
    5cff:	b8 0e 00 00 00       	mov    $0xe,%eax
    5d04:	e9 c6 02 00 00       	jmpq   5fcf <_ZL13parseSiteInfoP12phFuncStructPKcPiS3_S3_+0x3cd>
    5d09:	48 8b 45 e8          	mov    -0x18(%rbp),%rax
    5d0d:	48 89 c7             	mov    %rax,%rdi
    5d10:	e8 0b d0 ff ff       	callq  2d20 <strlen@plt>
    5d15:	48 83 f8 03          	cmp    $0x3,%rax
    5d19:	74 40                	je     5d5b <_ZL13parseSiteInfoP12phFuncStructPKcPiS3_S3_+0x159>
    5d1b:	48 8b 45 e8          	mov    -0x18(%rbp),%rax
    5d1f:	48 89 c7             	mov    %rax,%rdi
    5d22:	e8 f9 cf ff ff       	callq  2d20 <strlen@plt>
    5d27:	48 89 c2             	mov    %rax,%rdx
    5d2a:	48 8b 85 c8 df ff ff 	mov    -0x2038(%rbp),%rax
    5d31:	48 8b 40 10          	mov    0x10(%rax),%rax
    5d35:	48 89 d1             	mov    %rdx,%rcx
    5d38:	48 8d 15 51 54 00 00 	lea    0x5451(%rip),%rdx        # b190 <_fini+0x1b84>
    5d3f:	be 01 00 00 00       	mov    $0x1,%esi
    5d44:	48 89 c7             	mov    %rax,%rdi
    5d47:	b8 00 00 00 00       	mov    $0x0,%eax
    5d4c:	e8 9f ce ff ff       	callq  2bf0 <_Z16phLogFuncMessageP11phLogStruct11phLogType_tPKcz@plt>
    5d51:	b8 0e 00 00 00       	mov    $0xe,%eax
    5d56:	e9 74 02 00 00       	jmpq   5fcf <_ZL13parseSiteInfoP12phFuncStructPKcPiS3_S3_+0x3cd>
    5d5b:	48 8b 45 e8          	mov    -0x18(%rbp),%rax
    5d5f:	0f b6 40 01          	movzbl 0x1(%rax),%eax
    5d63:	88 45 e7             	mov    %al,-0x19(%rbp)
    5d66:	0f be 45 e7          	movsbl -0x19(%rbp),%eax
    5d6a:	ba 44 00 00 00       	mov    $0x44,%edx
    5d6f:	29 c2                	sub    %eax,%edx
    5d71:	89 d0                	mov    %edx,%eax
    5d73:	85 c0                	test   %eax,%eax
    5d75:	78 1b                	js     5d92 <_ZL13parseSiteInfoP12phFuncStructPKcPiS3_S3_+0x190>
    5d77:	0f be 45 e7          	movsbl -0x19(%rbp),%eax
    5d7b:	ba 44 00 00 00       	mov    $0x44,%edx
    5d80:	29 c2                	sub    %eax,%edx
    5d82:	89 d0                	mov    %edx,%eax
    5d84:	83 f8 03             	cmp    $0x3,%eax
    5d87:	7f 09                	jg     5d92 <_ZL13parseSiteInfoP12phFuncStructPKcPiS3_S3_+0x190>
    5d89:	c6 45 e7 41          	movb   $0x41,-0x19(%rbp)
    5d8d:	e9 ce 00 00 00       	jmpq   5e60 <_ZL13parseSiteInfoP12phFuncStructPKcPiS3_S3_+0x25e>
    5d92:	0f be 45 e7          	movsbl -0x19(%rbp),%eax
    5d96:	ba 48 00 00 00       	mov    $0x48,%edx
    5d9b:	29 c2                	sub    %eax,%edx
    5d9d:	89 d0                	mov    %edx,%eax
    5d9f:	85 c0                	test   %eax,%eax
    5da1:	78 1b                	js     5dbe <_ZL13parseSiteInfoP12phFuncStructPKcPiS3_S3_+0x1bc>
    5da3:	0f be 45 e7          	movsbl -0x19(%rbp),%eax
    5da7:	ba 48 00 00 00       	mov    $0x48,%edx
    5dac:	29 c2                	sub    %eax,%edx
    5dae:	89 d0                	mov    %edx,%eax
    5db0:	83 f8 03             	cmp    $0x3,%eax
    5db3:	7f 09                	jg     5dbe <_ZL13parseSiteInfoP12phFuncStructPKcPiS3_S3_+0x1bc>
    5db5:	c6 45 e7 45          	movb   $0x45,-0x19(%rbp)
    5db9:	e9 a2 00 00 00       	jmpq   5e60 <_ZL13parseSiteInfoP12phFuncStructPKcPiS3_S3_+0x25e>
    5dbe:	0f be 45 e7          	movsbl -0x19(%rbp),%eax
    5dc2:	ba 4c 00 00 00       	mov    $0x4c,%edx
    5dc7:	29 c2                	sub    %eax,%edx
    5dc9:	89 d0                	mov    %edx,%eax
    5dcb:	85 c0                	test   %eax,%eax
    5dcd:	78 18                	js     5de7 <_ZL13parseSiteInfoP12phFuncStructPKcPiS3_S3_+0x1e5>
    5dcf:	0f be 45 e7          	movsbl -0x19(%rbp),%eax
    5dd3:	ba 4c 00 00 00       	mov    $0x4c,%edx
    5dd8:	29 c2                	sub    %eax,%edx
    5dda:	89 d0                	mov    %edx,%eax
    5ddc:	83 f8 03             	cmp    $0x3,%eax
    5ddf:	7f 06                	jg     5de7 <_ZL13parseSiteInfoP12phFuncStructPKcPiS3_S3_+0x1e5>
    5de1:	c6 45 e7 49          	movb   $0x49,-0x19(%rbp)
    5de5:	eb 79                	jmp    5e60 <_ZL13parseSiteInfoP12phFuncStructPKcPiS3_S3_+0x25e>
    5de7:	0f be 45 e7          	movsbl -0x19(%rbp),%eax
    5deb:	ba 50 00 00 00       	mov    $0x50,%edx
    5df0:	29 c2                	sub    %eax,%edx
    5df2:	89 d0                	mov    %edx,%eax
    5df4:	85 c0                	test   %eax,%eax
    5df6:	78 18                	js     5e10 <_ZL13parseSiteInfoP12phFuncStructPKcPiS3_S3_+0x20e>
    5df8:	0f be 45 e7          	movsbl -0x19(%rbp),%eax
    5dfc:	ba 50 00 00 00       	mov    $0x50,%edx
    5e01:	29 c2                	sub    %eax,%edx
    5e03:	89 d0                	mov    %edx,%eax
    5e05:	83 f8 03             	cmp    $0x3,%eax
    5e08:	7f 06                	jg     5e10 <_ZL13parseSiteInfoP12phFuncStructPKcPiS3_S3_+0x20e>
    5e0a:	c6 45 e7 4d          	movb   $0x4d,-0x19(%rbp)
    5e0e:	eb 50                	jmp    5e60 <_ZL13parseSiteInfoP12phFuncStructPKcPiS3_S3_+0x25e>
    5e10:	0f be 45 e7          	movsbl -0x19(%rbp),%eax
    5e14:	ba 54 00 00 00       	mov    $0x54,%edx
    5e19:	29 c2                	sub    %eax,%edx
    5e1b:	89 d0                	mov    %edx,%eax
    5e1d:	85 c0                	test   %eax,%eax
    5e1f:	78 18                	js     5e39 <_ZL13parseSiteInfoP12phFuncStructPKcPiS3_S3_+0x237>
    5e21:	0f be 45 e7          	movsbl -0x19(%rbp),%eax
    5e25:	ba 54 00 00 00       	mov    $0x54,%edx
    5e2a:	29 c2                	sub    %eax,%edx
    5e2c:	89 d0                	mov    %edx,%eax
    5e2e:	83 f8 03             	cmp    $0x3,%eax
    5e31:	7f 06                	jg     5e39 <_ZL13parseSiteInfoP12phFuncStructPKcPiS3_S3_+0x237>
    5e33:	c6 45 e7 51          	movb   $0x51,-0x19(%rbp)
    5e37:	eb 27                	jmp    5e60 <_ZL13parseSiteInfoP12phFuncStructPKcPiS3_S3_+0x25e>
    5e39:	0f be 45 e7          	movsbl -0x19(%rbp),%eax
    5e3d:	ba 58 00 00 00       	mov    $0x58,%edx
    5e42:	29 c2                	sub    %eax,%edx
    5e44:	89 d0                	mov    %edx,%eax
    5e46:	85 c0                	test   %eax,%eax
    5e48:	78 16                	js     5e60 <_ZL13parseSiteInfoP12phFuncStructPKcPiS3_S3_+0x25e>
    5e4a:	0f be 45 e7          	movsbl -0x19(%rbp),%eax
    5e4e:	ba 58 00 00 00       	mov    $0x58,%edx
    5e53:	29 c2                	sub    %eax,%edx
    5e55:	89 d0                	mov    %edx,%eax
    5e57:	83 f8 03             	cmp    $0x3,%eax
    5e5a:	7f 04                	jg     5e60 <_ZL13parseSiteInfoP12phFuncStructPKcPiS3_S3_+0x25e>
    5e5c:	c6 45 e7 55          	movb   $0x55,-0x19(%rbp)
    5e60:	c7 45 e0 00 00 00 00 	movl   $0x0,-0x20(%rbp)
    5e67:	48 8b 85 c8 df ff ff 	mov    -0x2038(%rbp),%rax
    5e6e:	c7 80 2c 61 00 00 01 	movl   $0x1,0x612c(%rax)
    5e75:	00 00 00 
    5e78:	e9 16 01 00 00       	jmpq   5f93 <_ZL13parseSiteInfoP12phFuncStructPKcPiS3_S3_+0x391>
    5e7d:	48 83 7d e8 00       	cmpq   $0x0,-0x18(%rbp)
    5e82:	75 2e                	jne    5eb2 <_ZL13parseSiteInfoP12phFuncStructPKcPiS3_S3_+0x2b0>
    5e84:	48 8b 85 c8 df ff ff 	mov    -0x2038(%rbp),%rax
    5e8b:	48 8b 40 10          	mov    0x10(%rax),%rax
    5e8f:	48 8d 15 ba 52 00 00 	lea    0x52ba(%rip),%rdx        # b150 <_fini+0x1b44>
    5e96:	be 01 00 00 00       	mov    $0x1,%esi
    5e9b:	48 89 c7             	mov    %rax,%rdi
    5e9e:	b8 00 00 00 00       	mov    $0x0,%eax
    5ea3:	e8 48 cd ff ff       	callq  2bf0 <_Z16phLogFuncMessageP11phLogStruct11phLogType_tPKcz@plt>
    5ea8:	b8 0e 00 00 00       	mov    $0xe,%eax
    5ead:	e9 1d 01 00 00       	jmpq   5fcf <_ZL13parseSiteInfoP12phFuncStructPKcPiS3_S3_+0x3cd>
    5eb2:	48 8b 45 e8          	mov    -0x18(%rbp),%rax
    5eb6:	48 89 c7             	mov    %rax,%rdi
    5eb9:	e8 62 ce ff ff       	callq  2d20 <strlen@plt>
    5ebe:	48 83 f8 03          	cmp    $0x3,%rax
    5ec2:	74 40                	je     5f04 <_ZL13parseSiteInfoP12phFuncStructPKcPiS3_S3_+0x302>
    5ec4:	48 8b 45 e8          	mov    -0x18(%rbp),%rax
    5ec8:	48 89 c7             	mov    %rax,%rdi
    5ecb:	e8 50 ce ff ff       	callq  2d20 <strlen@plt>
    5ed0:	48 89 c2             	mov    %rax,%rdx
    5ed3:	48 8b 85 c8 df ff ff 	mov    -0x2038(%rbp),%rax
    5eda:	48 8b 40 10          	mov    0x10(%rax),%rax
    5ede:	48 89 d1             	mov    %rdx,%rcx
    5ee1:	48 8d 15 a8 52 00 00 	lea    0x52a8(%rip),%rdx        # b190 <_fini+0x1b84>
    5ee8:	be 01 00 00 00       	mov    $0x1,%esi
    5eed:	48 89 c7             	mov    %rax,%rdi
    5ef0:	b8 00 00 00 00       	mov    $0x0,%eax
    5ef5:	e8 f6 cc ff ff       	callq  2bf0 <_Z16phLogFuncMessageP11phLogStruct11phLogType_tPKcz@plt>
    5efa:	b8 0e 00 00 00       	mov    $0xe,%eax
    5eff:	e9 cb 00 00 00       	jmpq   5fcf <_ZL13parseSiteInfoP12phFuncStructPKcPiS3_S3_+0x3cd>
    5f04:	8b 45 e0             	mov    -0x20(%rbp),%eax
    5f07:	48 98                	cltq   
    5f09:	48 c1 e0 06          	shl    $0x6,%rax
    5f0d:	48 89 c2             	mov    %rax,%rdx
    5f10:	48 8d 05 09 90 20 00 	lea    0x209009(%rip),%rax        # 20ef20 <_ZL15handlerSiteName>
    5f17:	48 01 c2             	add    %rax,%rdx
    5f1a:	48 8b 45 e8          	mov    -0x18(%rbp),%rax
    5f1e:	48 89 c6             	mov    %rax,%rsi
    5f21:	48 89 d7             	mov    %rdx,%rdi
    5f24:	e8 f7 cf ff ff       	callq  2f20 <strcpy@plt>
    5f29:	8b 45 e0             	mov    -0x20(%rbp),%eax
    5f2c:	8d 50 01             	lea    0x1(%rax),%edx
    5f2f:	89 55 e0             	mov    %edx,-0x20(%rbp)
    5f32:	48 98                	cltq   
    5f34:	48 8d 14 85 00 00 00 	lea    0x0(,%rax,4),%rdx
    5f3b:	00 
    5f3c:	48 8b 85 a8 df ff ff 	mov    -0x2058(%rbp),%rax
    5f43:	48 8d 1c 02          	lea    (%rdx,%rax,1),%rbx
    5f47:	48 8b 45 e8          	mov    -0x18(%rbp),%rax
    5f4b:	48 83 c0 01          	add    $0x1,%rax
    5f4f:	0f b6 00             	movzbl (%rax),%eax
    5f52:	0f be d0             	movsbl %al,%edx
    5f55:	0f be 45 e7          	movsbl -0x19(%rbp),%eax
    5f59:	29 c2                	sub    %eax,%edx
    5f5b:	89 d0                	mov    %edx,%eax
    5f5d:	01 c0                	add    %eax,%eax
    5f5f:	01 d0                	add    %edx,%eax
    5f61:	01 c0                	add    %eax,%eax
    5f63:	41 89 c4             	mov    %eax,%r12d
    5f66:	48 8b 45 e8          	mov    -0x18(%rbp),%rax
    5f6a:	48 83 c0 02          	add    $0x2,%rax
    5f6e:	48 89 c7             	mov    %rax,%rdi
    5f71:	e8 da ce ff ff       	callq  2e50 <atoi@plt>
    5f76:	44 01 e0             	add    %r12d,%eax
    5f79:	83 c0 01             	add    $0x1,%eax
    5f7c:	89 03                	mov    %eax,(%rbx)
    5f7e:	48 8d 35 c8 51 00 00 	lea    0x51c8(%rip),%rsi        # b14d <_fini+0x1b41>
    5f85:	bf 00 00 00 00       	mov    $0x0,%edi
    5f8a:	e8 b1 cf ff ff       	callq  2f40 <strtok@plt>
    5f8f:	48 89 45 e8          	mov    %rax,-0x18(%rbp)
    5f93:	48 83 7d e8 00       	cmpq   $0x0,-0x18(%rbp)
    5f98:	0f 85 df fe ff ff    	jne    5e7d <_ZL13parseSiteInfoP12phFuncStructPKcPiS3_S3_+0x27b>
    5f9e:	8b 45 e0             	mov    -0x20(%rbp),%eax
    5fa1:	48 98                	cltq   
    5fa3:	48 c1 e0 02          	shl    $0x2,%rax
    5fa7:	48 8d 50 fc          	lea    -0x4(%rax),%rdx
    5fab:	48 8b 85 a8 df ff ff 	mov    -0x2058(%rbp),%rax
    5fb2:	48 01 d0             	add    %rdx,%rax
    5fb5:	8b 10                	mov    (%rax),%edx
    5fb7:	48 8b 85 b8 df ff ff 	mov    -0x2048(%rbp),%rax
    5fbe:	89 10                	mov    %edx,(%rax)
    5fc0:	48 8b 85 b0 df ff ff 	mov    -0x2050(%rbp),%rax
    5fc7:	8b 55 e0             	mov    -0x20(%rbp),%edx
    5fca:	89 10                	mov    %edx,(%rax)
    5fcc:	8b 45 dc             	mov    -0x24(%rbp),%eax
    5fcf:	48 81 c4 50 20 00 00 	add    $0x2050,%rsp
    5fd6:	5b                   	pop    %rbx
    5fd7:	41 5c                	pop    %r12
    5fd9:	5d                   	pop    %rbp
    5fda:	c3                   	retq   

0000000000005fdb <_ZL20getDeviceContactInfoP12phFuncStructPKc>:
    5fdb:	55                   	push   %rbp
    5fdc:	48 89 e5             	mov    %rsp,%rbp
    5fdf:	48 81 ec f0 30 00 00 	sub    $0x30f0,%rsp
    5fe6:	48 89 bd 18 cf ff ff 	mov    %rdi,-0x30e8(%rbp)
    5fed:	48 89 b5 10 cf ff ff 	mov    %rsi,-0x30f0(%rbp)
    5ff4:	48 8b 85 18 cf ff ff 	mov    -0x30e8(%rbp),%rax
    5ffb:	48 8b 40 10          	mov    0x10(%rax),%rax
    5fff:	48 8d 0d 2a 57 00 00 	lea    0x572a(%rip),%rcx        # b730 <_ZZL20getDeviceContactInfoP12phFuncStructPKcE12__FUNCTION__>
    6006:	48 8d 15 bf 51 00 00 	lea    0x51bf(%rip),%rdx        # b1cc <_fini+0x1bc0>
    600d:	be 06 00 00 00       	mov    $0x6,%esi
    6012:	48 89 c7             	mov    %rax,%rdi
    6015:	b8 00 00 00 00       	mov    $0x0,%eax
    601a:	e8 d1 cb ff ff       	callq  2bf0 <_Z16phLogFuncMessageP11phLogStruct11phLogType_tPKcz@plt>
    601f:	48 8b 85 18 cf ff ff 	mov    -0x30e8(%rbp),%rax
    6026:	48 8b 40 10          	mov    0x10(%rax),%rax
    602a:	48 8b 95 10 cf ff ff 	mov    -0x30f0(%rbp),%rdx
    6031:	48 89 d1             	mov    %rdx,%rcx
    6034:	48 8d 15 a0 51 00 00 	lea    0x51a0(%rip),%rdx        # b1db <_fini+0x1bcf>
    603b:	be 06 00 00 00       	mov    $0x6,%esi
    6040:	48 89 c7             	mov    %rax,%rdi
    6043:	b8 00 00 00 00       	mov    $0x0,%eax
    6048:	e8 a3 cb ff ff       	callq  2bf0 <_Z16phLogFuncMessageP11phLogStruct11phLogType_tPKcz@plt>
    604d:	c7 45 fc 00 00 00 00 	movl   $0x0,-0x4(%rbp)
    6054:	48 c7 85 a0 df ff ff 	movq   $0x0,-0x2060(%rbp)
    605b:	00 00 00 00 
    605f:	48 8d b5 a8 df ff ff 	lea    -0x2058(%rbp),%rsi
    6066:	b8 00 00 00 00       	mov    $0x0,%eax
    606b:	ba ff 03 00 00       	mov    $0x3ff,%edx
    6070:	48 89 f7             	mov    %rsi,%rdi
    6073:	48 89 d1             	mov    %rdx,%rcx
    6076:	f3 48 ab             	rep stos %rax,%es:(%rdi)
    6079:	c7 45 a8 00 00 00 00 	movl   $0x0,-0x58(%rbp)
    6080:	c7 45 a4 00 00 00 00 	movl   $0x0,-0x5c(%rbp)
    6087:	c7 45 f8 00 00 00 00 	movl   $0x0,-0x8(%rbp)
    608e:	c7 45 f4 00 00 00 00 	movl   $0x0,-0xc(%rbp)
    6095:	48 8d 85 a0 cf ff ff 	lea    -0x3060(%rbp),%rax
    609c:	ba 00 04 00 00       	mov    $0x400,%edx
    60a1:	be 00 00 00 00       	mov    $0x0,%esi
    60a6:	48 89 c7             	mov    %rax,%rdi
    60a9:	e8 62 cb ff ff       	callq  2c10 <memset@plt>
    60ae:	48 8b 8d 10 cf ff ff 	mov    -0x30f0(%rbp),%rcx
    60b5:	48 8d 85 a0 df ff ff 	lea    -0x2060(%rbp),%rax
    60bc:	ba ff 1f 00 00       	mov    $0x1fff,%edx
    60c1:	48 89 ce             	mov    %rcx,%rsi
    60c4:	48 89 c7             	mov    %rax,%rdi
    60c7:	e8 84 ce ff ff       	callq  2f50 <strncpy@plt>
    60cc:	48 8b 85 10 cf ff ff 	mov    -0x30f0(%rbp),%rax
    60d3:	ba 05 00 00 00       	mov    $0x5,%edx
    60d8:	48 8d 35 12 51 00 00 	lea    0x5112(%rip),%rsi        # b1f1 <_fini+0x1be5>
    60df:	48 89 c7             	mov    %rax,%rdi
    60e2:	e8 a9 cb ff ff       	callq  2c90 <strncmp@plt>
    60e7:	85 c0                	test   %eax,%eax
    60e9:	0f 85 63 03 00 00    	jne    6452 <_ZL20getDeviceContactInfoP12phFuncStructPKc+0x477>
    60ef:	48 8b 85 10 cf ff ff 	mov    -0x30f0(%rbp),%rax
    60f6:	ba 0b 00 00 00       	mov    $0xb,%edx
    60fb:	48 8d 35 f5 50 00 00 	lea    0x50f5(%rip),%rsi        # b1f7 <_fini+0x1beb>
    6102:	48 89 c7             	mov    %rax,%rdi
    6105:	e8 86 cb ff ff       	callq  2c90 <strncmp@plt>
    610a:	85 c0                	test   %eax,%eax
    610c:	0f 85 44 02 00 00    	jne    6356 <_ZL20getDeviceContactInfoP12phFuncStructPKc+0x37b>
    6112:	48 8b 85 10 cf ff ff 	mov    -0x30f0(%rbp),%rax
    6119:	48 89 c7             	mov    %rax,%rdi
    611c:	e8 ff cb ff ff       	callq  2d20 <strlen@plt>
    6121:	48 83 f8 0f          	cmp    $0xf,%rax
    6125:	75 5b                	jne    6182 <_ZL20getDeviceContactInfoP12phFuncStructPKc+0x1a7>
    6127:	48 8d 85 a0 df ff ff 	lea    -0x2060(%rbp),%rax
    612e:	48 8d 35 ce 50 00 00 	lea    0x50ce(%rip),%rsi        # b203 <_fini+0x1bf7>
    6135:	48 89 c7             	mov    %rax,%rdi
    6138:	e8 a3 cc ff ff       	callq  2de0 <strstr@plt>
    613d:	48 89 45 c8          	mov    %rax,-0x38(%rbp)
    6141:	48 8b 45 c8          	mov    -0x38(%rbp),%rax
    6145:	48 83 c0 06          	add    $0x6,%rax
    6149:	48 89 c7             	mov    %rax,%rdi
    614c:	e8 ff cc ff ff       	callq  2e50 <atoi@plt>
    6151:	89 45 f4             	mov    %eax,-0xc(%rbp)
    6154:	48 8b 45 c8          	mov    -0x38(%rbp),%rax
    6158:	48 83 c0 08          	add    $0x8,%rax
    615c:	48 89 c7             	mov    %rax,%rdi
    615f:	e8 ec cc ff ff       	callq  2e50 <atoi@plt>
    6164:	89 45 c4             	mov    %eax,-0x3c(%rbp)
    6167:	8b 45 c4             	mov    -0x3c(%rbp),%eax
    616a:	83 c0 01             	add    $0x1,%eax
    616d:	89 45 a4             	mov    %eax,-0x5c(%rbp)
    6170:	8b 45 a4             	mov    -0x5c(%rbp),%eax
    6173:	89 45 a8             	mov    %eax,-0x58(%rbp)
    6176:	c7 45 f8 01 00 00 00 	movl   $0x1,-0x8(%rbp)
    617d:	e9 cf 01 00 00       	jmpq   6351 <_ZL20getDeviceContactInfoP12phFuncStructPKc+0x376>
    6182:	48 8d 85 a0 df ff ff 	lea    -0x2060(%rbp),%rax
    6189:	48 8d 35 79 50 00 00 	lea    0x5079(%rip),%rsi        # b209 <_fini+0x1bfd>
    6190:	48 89 c7             	mov    %rax,%rdi
    6193:	e8 a8 cd ff ff       	callq  2f40 <strtok@plt>
    6198:	48 85 c0             	test   %rax,%rax
    619b:	0f 94 c0             	sete   %al
    619e:	84 c0                	test   %al,%al
    61a0:	74 0a                	je     61ac <_ZL20getDeviceContactInfoP12phFuncStructPKc+0x1d1>
    61a2:	b8 0e 00 00 00       	mov    $0xe,%eax
    61a7:	e9 39 06 00 00       	jmpq   67e5 <_ZL20getDeviceContactInfoP12phFuncStructPKc+0x80a>
    61ac:	48 8d 35 56 50 00 00 	lea    0x5056(%rip),%rsi        # b209 <_fini+0x1bfd>
    61b3:	bf 00 00 00 00       	mov    $0x0,%edi
    61b8:	e8 83 cd ff ff       	callq  2f40 <strtok@plt>
    61bd:	48 85 c0             	test   %rax,%rax
    61c0:	0f 94 c0             	sete   %al
    61c3:	84 c0                	test   %al,%al
    61c5:	74 0a                	je     61d1 <_ZL20getDeviceContactInfoP12phFuncStructPKc+0x1f6>
    61c7:	b8 0e 00 00 00       	mov    $0xe,%eax
    61cc:	e9 14 06 00 00       	jmpq   67e5 <_ZL20getDeviceContactInfoP12phFuncStructPKc+0x80a>
    61d1:	48 8d 35 31 50 00 00 	lea    0x5031(%rip),%rsi        # b209 <_fini+0x1bfd>
    61d8:	bf 00 00 00 00       	mov    $0x0,%edi
    61dd:	e8 5e cd ff ff       	callq  2f40 <strtok@plt>
    61e2:	48 89 45 b8          	mov    %rax,-0x48(%rbp)
    61e6:	48 8b 45 b8          	mov    -0x48(%rbp),%rax
    61ea:	48 8d 35 1a 50 00 00 	lea    0x501a(%rip),%rsi        # b20b <_fini+0x1bff>
    61f1:	48 89 c7             	mov    %rax,%rdi
    61f4:	e8 e7 cb ff ff       	callq  2de0 <strstr@plt>
    61f9:	48 85 c0             	test   %rax,%rax
    61fc:	0f 84 22 01 00 00    	je     6324 <_ZL20getDeviceContactInfoP12phFuncStructPKc+0x349>
    6202:	48 8d b5 20 cf ff ff 	lea    -0x30e0(%rbp),%rsi
    6209:	b8 00 00 00 00       	mov    $0x0,%eax
    620e:	ba 10 00 00 00       	mov    $0x10,%edx
    6213:	48 89 f7             	mov    %rsi,%rdi
    6216:	48 89 d1             	mov    %rdx,%rcx
    6219:	f3 48 ab             	rep stos %rax,%es:(%rdi)
    621c:	48 8b 55 b8          	mov    -0x48(%rbp),%rdx
    6220:	48 8d 85 20 cf ff ff 	lea    -0x30e0(%rbp),%rax
    6227:	48 89 d6             	mov    %rdx,%rsi
    622a:	48 89 c7             	mov    %rax,%rdi
    622d:	e8 ee cc ff ff       	callq  2f20 <strcpy@plt>
    6232:	48 8d 85 20 cf ff ff 	lea    -0x30e0(%rbp),%rax
    6239:	48 89 c7             	mov    %rax,%rdi
    623c:	e8 df ca ff ff       	callq  2d20 <strlen@plt>
    6241:	83 e8 01             	sub    $0x1,%eax
    6244:	89 45 f0             	mov    %eax,-0x10(%rbp)
    6247:	eb 41                	jmp    628a <_ZL20getDeviceContactInfoP12phFuncStructPKc+0x2af>
    6249:	8b 45 f0             	mov    -0x10(%rbp),%eax
    624c:	48 98                	cltq   
    624e:	0f b6 84 05 20 cf ff 	movzbl -0x30e0(%rbp,%rax,1),%eax
    6255:	ff 
    6256:	3c 22                	cmp    $0x22,%al
    6258:	75 2c                	jne    6286 <_ZL20getDeviceContactInfoP12phFuncStructPKc+0x2ab>
    625a:	8b 45 f0             	mov    -0x10(%rbp),%eax
    625d:	83 c0 01             	add    $0x1,%eax
    6260:	48 8d 95 20 cf ff ff 	lea    -0x30e0(%rbp),%rdx
    6267:	48 98                	cltq   
    6269:	48 01 c2             	add    %rax,%rdx
    626c:	48 8d 8d 20 cf ff ff 	lea    -0x30e0(%rbp),%rcx
    6273:	8b 45 f0             	mov    -0x10(%rbp),%eax
    6276:	48 98                	cltq   
    6278:	48 01 c8             	add    %rcx,%rax
    627b:	48 89 d6             	mov    %rdx,%rsi
    627e:	48 89 c7             	mov    %rax,%rdi
    6281:	e8 9a cc ff ff       	callq  2f20 <strcpy@plt>
    6286:	83 6d f0 01          	subl   $0x1,-0x10(%rbp)
    628a:	83 7d f0 00          	cmpl   $0x0,-0x10(%rbp)
    628e:	79 b9                	jns    6249 <_ZL20getDeviceContactInfoP12phFuncStructPKc+0x26e>
    6290:	48 8b 85 18 cf ff ff 	mov    -0x30e8(%rbp),%rax
    6297:	48 8d 90 ac 60 00 00 	lea    0x60ac(%rax),%rdx
    629e:	48 8d 85 20 cf ff ff 	lea    -0x30e0(%rbp),%rax
    62a5:	48 89 c6             	mov    %rax,%rsi
    62a8:	48 89 d7             	mov    %rdx,%rdi
    62ab:	e8 70 cc ff ff       	callq  2f20 <strcpy@plt>
    62b0:	48 8b 85 18 cf ff ff 	mov    -0x30e8(%rbp),%rax
    62b7:	48 8d 90 ac 60 00 00 	lea    0x60ac(%rax),%rdx
    62be:	48 8b 85 18 cf ff ff 	mov    -0x30e8(%rbp),%rax
    62c5:	48 8b 40 10          	mov    0x10(%rax),%rax
    62c9:	48 89 d1             	mov    %rdx,%rcx
    62cc:	48 8d 15 3a 4f 00 00 	lea    0x4f3a(%rip),%rdx        # b20d <_fini+0x1c01>
    62d3:	be 06 00 00 00       	mov    $0x6,%esi
    62d8:	48 89 c7             	mov    %rax,%rdi
    62db:	b8 00 00 00 00       	mov    $0x0,%eax
    62e0:	e8 0b c9 ff ff       	callq  2bf0 <_Z16phLogFuncMessageP11phLogStruct11phLogType_tPKcz@plt>
    62e5:	48 8d 35 1d 4f 00 00 	lea    0x4f1d(%rip),%rsi        # b209 <_fini+0x1bfd>
    62ec:	bf 00 00 00 00       	mov    $0x0,%edi
    62f1:	e8 4a cc ff ff       	callq  2f40 <strtok@plt>
    62f6:	48 89 45 b8          	mov    %rax,-0x48(%rbp)
    62fa:	48 8d bd a0 cf ff ff 	lea    -0x3060(%rbp),%rdi
    6301:	48 8d 4d a8          	lea    -0x58(%rbp),%rcx
    6305:	48 8d 55 a4          	lea    -0x5c(%rbp),%rdx
    6309:	48 8b 75 b8          	mov    -0x48(%rbp),%rsi
    630d:	48 8b 85 18 cf ff ff 	mov    -0x30e8(%rbp),%rax
    6314:	49 89 f8             	mov    %rdi,%r8
    6317:	48 89 c7             	mov    %rax,%rdi
    631a:	e8 e3 f8 ff ff       	callq  5c02 <_ZL13parseSiteInfoP12phFuncStructPKcPiS3_S3_>
    631f:	89 45 fc             	mov    %eax,-0x4(%rbp)
    6322:	eb 2d                	jmp    6351 <_ZL20getDeviceContactInfoP12phFuncStructPKc+0x376>
    6324:	48 8d bd a0 cf ff ff 	lea    -0x3060(%rbp),%rdi
    632b:	48 8d 4d a8          	lea    -0x58(%rbp),%rcx
    632f:	48 8d 55 a4          	lea    -0x5c(%rbp),%rdx
    6333:	48 8b 75 b8          	mov    -0x48(%rbp),%rsi
    6337:	48 8b 85 18 cf ff ff 	mov    -0x30e8(%rbp),%rax
    633e:	49 89 f8             	mov    %rdi,%r8
    6341:	48 89 c7             	mov    %rax,%rdi
    6344:	e8 b9 f8 ff ff       	callq  5c02 <_ZL13parseSiteInfoP12phFuncStructPKcPiS3_S3_>
    6349:	89 45 fc             	mov    %eax,-0x4(%rbp)
    634c:	e9 fc 00 00 00       	jmpq   644d <_ZL20getDeviceContactInfoP12phFuncStructPKc+0x472>
    6351:	e9 f7 00 00 00       	jmpq   644d <_ZL20getDeviceContactInfoP12phFuncStructPKc+0x472>
    6356:	48 8b 85 10 cf ff ff 	mov    -0x30f0(%rbp),%rax
    635d:	ba 0e 00 00 00       	mov    $0xe,%edx
    6362:	48 8d 35 b8 4e 00 00 	lea    0x4eb8(%rip),%rsi        # b221 <_fini+0x1c15>
    6369:	48 89 c7             	mov    %rax,%rdi
    636c:	e8 1f c9 ff ff       	callq  2c90 <strncmp@plt>
    6371:	85 c0                	test   %eax,%eax
    6373:	0f 85 d4 00 00 00    	jne    644d <_ZL20getDeviceContactInfoP12phFuncStructPKc+0x472>
    6379:	48 8b 85 18 cf ff ff 	mov    -0x30e8(%rbp),%rax
    6380:	48 8b 40 10          	mov    0x10(%rax),%rax
    6384:	48 8d 15 a5 4e 00 00 	lea    0x4ea5(%rip),%rdx        # b230 <_fini+0x1c24>
    638b:	be 06 00 00 00       	mov    $0x6,%esi
    6390:	48 89 c7             	mov    %rax,%rdi
    6393:	b8 00 00 00 00       	mov    $0x0,%eax
    6398:	e8 53 c8 ff ff       	callq  2bf0 <_Z16phLogFuncMessageP11phLogStruct11phLogType_tPKcz@plt>
    639d:	48 8d 85 a0 df ff ff 	lea    -0x2060(%rbp),%rax
    63a4:	48 8d 35 5e 4e 00 00 	lea    0x4e5e(%rip),%rsi        # b209 <_fini+0x1bfd>
    63ab:	48 89 c7             	mov    %rax,%rdi
    63ae:	e8 8d cb ff ff       	callq  2f40 <strtok@plt>
    63b3:	48 8d 35 4f 4e 00 00 	lea    0x4e4f(%rip),%rsi        # b209 <_fini+0x1bfd>
    63ba:	bf 00 00 00 00       	mov    $0x0,%edi
    63bf:	e8 7c cb ff ff       	callq  2f40 <strtok@plt>
    63c4:	48 8d 35 82 4d 00 00 	lea    0x4d82(%rip),%rsi        # b14d <_fini+0x1b41>
    63cb:	bf 00 00 00 00       	mov    $0x0,%edi
    63d0:	e8 6b cb ff ff       	callq  2f40 <strtok@plt>
    63d5:	48 89 45 e8          	mov    %rax,-0x18(%rbp)
    63d9:	c7 45 e4 00 00 00 00 	movl   $0x0,-0x1c(%rbp)
    63e0:	eb 5e                	jmp    6440 <_ZL20getDeviceContactInfoP12phFuncStructPKc+0x465>
    63e2:	48 8b 45 e8          	mov    -0x18(%rbp),%rax
    63e6:	48 89 c7             	mov    %rax,%rdi
    63e9:	e8 62 ca ff ff       	callq  2e50 <atoi@plt>
    63ee:	8d 50 01             	lea    0x1(%rax),%edx
    63f1:	8b 45 e4             	mov    -0x1c(%rbp),%eax
    63f4:	48 98                	cltq   
    63f6:	89 94 85 a0 cf ff ff 	mov    %edx,-0x3060(%rbp,%rax,4)
    63fd:	48 8d 35 49 4d 00 00 	lea    0x4d49(%rip),%rsi        # b14d <_fini+0x1b41>
    6404:	bf 00 00 00 00       	mov    $0x0,%edi
    6409:	e8 32 cb ff ff       	callq  2f40 <strtok@plt>
    640e:	48 89 45 e8          	mov    %rax,-0x18(%rbp)
    6412:	8b 45 e4             	mov    -0x1c(%rbp),%eax
    6415:	48 98                	cltq   
    6417:	8b 94 85 a0 cf ff ff 	mov    -0x3060(%rbp,%rax,4),%edx
    641e:	8b 45 a4             	mov    -0x5c(%rbp),%eax
    6421:	39 c2                	cmp    %eax,%edx
    6423:	7e 17                	jle    643c <_ZL20getDeviceContactInfoP12phFuncStructPKc+0x461>
    6425:	8b 45 e4             	mov    -0x1c(%rbp),%eax
    6428:	8d 50 01             	lea    0x1(%rax),%edx
    642b:	89 55 e4             	mov    %edx,-0x1c(%rbp)
    642e:	48 98                	cltq   
    6430:	8b 84 85 a0 cf ff ff 	mov    -0x3060(%rbp,%rax,4),%eax
    6437:	89 45 a4             	mov    %eax,-0x5c(%rbp)
    643a:	eb 04                	jmp    6440 <_ZL20getDeviceContactInfoP12phFuncStructPKc+0x465>
    643c:	83 45 e4 01          	addl   $0x1,-0x1c(%rbp)
    6440:	48 83 7d e8 00       	cmpq   $0x0,-0x18(%rbp)
    6445:	75 9b                	jne    63e2 <_ZL20getDeviceContactInfoP12phFuncStructPKc+0x407>
    6447:	8b 45 e4             	mov    -0x1c(%rbp),%eax
    644a:	89 45 a8             	mov    %eax,-0x58(%rbp)
    644d:	e9 92 01 00 00       	jmpq   65e4 <_ZL20getDeviceContactInfoP12phFuncStructPKc+0x609>
    6452:	48 8b 85 10 cf ff ff 	mov    -0x30f0(%rbp),%rax
    6459:	ba 07 00 00 00       	mov    $0x7,%edx
    645e:	48 8d 35 e4 4d 00 00 	lea    0x4de4(%rip),%rsi        # b249 <_fini+0x1c3d>
    6465:	48 89 c7             	mov    %rax,%rdi
    6468:	e8 23 c8 ff ff       	callq  2c90 <strncmp@plt>
    646d:	85 c0                	test   %eax,%eax
    646f:	0f 85 6f 01 00 00    	jne    65e4 <_ZL20getDeviceContactInfoP12phFuncStructPKc+0x609>
    6475:	48 8b 85 10 cf ff ff 	mov    -0x30f0(%rbp),%rax
    647c:	ba 0d 00 00 00       	mov    $0xd,%edx
    6481:	48 8d 35 c9 4d 00 00 	lea    0x4dc9(%rip),%rsi        # b251 <_fini+0x1c45>
    6488:	48 89 c7             	mov    %rax,%rdi
    648b:	e8 00 c8 ff ff       	callq  2c90 <strncmp@plt>
    6490:	85 c0                	test   %eax,%eax
    6492:	75 6c                	jne    6500 <_ZL20getDeviceContactInfoP12phFuncStructPKc+0x525>
    6494:	48 8d 85 a0 df ff ff 	lea    -0x2060(%rbp),%rax
    649b:	48 8d 35 61 4d 00 00 	lea    0x4d61(%rip),%rsi        # b203 <_fini+0x1bf7>
    64a2:	48 89 c7             	mov    %rax,%rdi
    64a5:	e8 36 c9 ff ff       	callq  2de0 <strstr@plt>
    64aa:	48 89 45 b0          	mov    %rax,-0x50(%rbp)
    64ae:	48 8b 45 b0          	mov    -0x50(%rbp),%rax
    64b2:	48 83 c0 06          	add    $0x6,%rax
    64b6:	48 89 c7             	mov    %rax,%rdi
    64b9:	e8 92 c9 ff ff       	callq  2e50 <atoi@plt>
    64be:	89 45 f4             	mov    %eax,-0xc(%rbp)
    64c1:	48 8b 45 b0          	mov    -0x50(%rbp),%rax
    64c5:	48 83 c0 08          	add    $0x8,%rax
    64c9:	48 89 c7             	mov    %rax,%rdi
    64cc:	e8 7f c9 ff ff       	callq  2e50 <atoi@plt>
    64d1:	89 45 ac             	mov    %eax,-0x54(%rbp)
    64d4:	8b 45 ac             	mov    -0x54(%rbp),%eax
    64d7:	83 c0 01             	add    $0x1,%eax
    64da:	89 45 a4             	mov    %eax,-0x5c(%rbp)
    64dd:	8b 45 a4             	mov    -0x5c(%rbp),%eax
    64e0:	89 45 a8             	mov    %eax,-0x58(%rbp)
    64e3:	c7 45 f8 01 00 00 00 	movl   $0x1,-0x8(%rbp)
    64ea:	48 8b 85 18 cf ff ff 	mov    -0x30e8(%rbp),%rax
    64f1:	c7 80 30 61 00 00 01 	movl   $0x1,0x6130(%rax)
    64f8:	00 00 00 
    64fb:	e9 e4 00 00 00       	jmpq   65e4 <_ZL20getDeviceContactInfoP12phFuncStructPKc+0x609>
    6500:	48 8b 85 10 cf ff ff 	mov    -0x30f0(%rbp),%rax
    6507:	ba 10 00 00 00       	mov    $0x10,%edx
    650c:	48 8d 35 4c 4d 00 00 	lea    0x4d4c(%rip),%rsi        # b25f <_fini+0x1c53>
    6513:	48 89 c7             	mov    %rax,%rdi
    6516:	e8 75 c7 ff ff       	callq  2c90 <strncmp@plt>
    651b:	85 c0                	test   %eax,%eax
    651d:	0f 85 c1 00 00 00    	jne    65e4 <_ZL20getDeviceContactInfoP12phFuncStructPKc+0x609>
    6523:	48 8d 85 a0 df ff ff 	lea    -0x2060(%rbp),%rax
    652a:	48 8d 35 d8 4c 00 00 	lea    0x4cd8(%rip),%rsi        # b209 <_fini+0x1bfd>
    6531:	48 89 c7             	mov    %rax,%rdi
    6534:	e8 07 ca ff ff       	callq  2f40 <strtok@plt>
    6539:	48 8d 35 c9 4c 00 00 	lea    0x4cc9(%rip),%rsi        # b209 <_fini+0x1bfd>
    6540:	bf 00 00 00 00       	mov    $0x0,%edi
    6545:	e8 f6 c9 ff ff       	callq  2f40 <strtok@plt>
    654a:	48 8d 35 fc 4b 00 00 	lea    0x4bfc(%rip),%rsi        # b14d <_fini+0x1b41>
    6551:	bf 00 00 00 00       	mov    $0x0,%edi
    6556:	e8 e5 c9 ff ff       	callq  2f40 <strtok@plt>
    655b:	48 89 45 d8          	mov    %rax,-0x28(%rbp)
    655f:	c7 45 d4 00 00 00 00 	movl   $0x0,-0x2c(%rbp)
    6566:	eb 5e                	jmp    65c6 <_ZL20getDeviceContactInfoP12phFuncStructPKc+0x5eb>
    6568:	48 8b 45 d8          	mov    -0x28(%rbp),%rax
    656c:	48 89 c7             	mov    %rax,%rdi
    656f:	e8 dc c8 ff ff       	callq  2e50 <atoi@plt>
    6574:	8d 50 01             	lea    0x1(%rax),%edx
    6577:	8b 45 d4             	mov    -0x2c(%rbp),%eax
    657a:	48 98                	cltq   
    657c:	89 94 85 a0 cf ff ff 	mov    %edx,-0x3060(%rbp,%rax,4)
    6583:	48 8d 35 c3 4b 00 00 	lea    0x4bc3(%rip),%rsi        # b14d <_fini+0x1b41>
    658a:	bf 00 00 00 00       	mov    $0x0,%edi
    658f:	e8 ac c9 ff ff       	callq  2f40 <strtok@plt>
    6594:	48 89 45 d8          	mov    %rax,-0x28(%rbp)
    6598:	8b 45 d4             	mov    -0x2c(%rbp),%eax
    659b:	48 98                	cltq   
    659d:	8b 94 85 a0 cf ff ff 	mov    -0x3060(%rbp,%rax,4),%edx
    65a4:	8b 45 a4             	mov    -0x5c(%rbp),%eax
    65a7:	39 c2                	cmp    %eax,%edx
    65a9:	7e 17                	jle    65c2 <_ZL20getDeviceContactInfoP12phFuncStructPKc+0x5e7>
    65ab:	8b 45 d4             	mov    -0x2c(%rbp),%eax
    65ae:	8d 50 01             	lea    0x1(%rax),%edx
    65b1:	89 55 d4             	mov    %edx,-0x2c(%rbp)
    65b4:	48 98                	cltq   
    65b6:	8b 84 85 a0 cf ff ff 	mov    -0x3060(%rbp,%rax,4),%eax
    65bd:	89 45 a4             	mov    %eax,-0x5c(%rbp)
    65c0:	eb 04                	jmp    65c6 <_ZL20getDeviceContactInfoP12phFuncStructPKc+0x5eb>
    65c2:	83 45 d4 01          	addl   $0x1,-0x2c(%rbp)
    65c6:	48 83 7d d8 00       	cmpq   $0x0,-0x28(%rbp)
    65cb:	75 9b                	jne    6568 <_ZL20getDeviceContactInfoP12phFuncStructPKc+0x58d>
    65cd:	8b 45 d4             	mov    -0x2c(%rbp),%eax
    65d0:	89 45 a8             	mov    %eax,-0x58(%rbp)
    65d3:	48 8b 85 18 cf ff ff 	mov    -0x30e8(%rbp),%rax
    65da:	c7 80 30 61 00 00 01 	movl   $0x1,0x6130(%rax)
    65e1:	00 00 00 
    65e4:	48 8b 85 18 cf ff ff 	mov    -0x30e8(%rbp),%rax
    65eb:	8b 50 50             	mov    0x50(%rax),%edx
    65ee:	8b 45 a4             	mov    -0x5c(%rbp),%eax
    65f1:	39 c2                	cmp    %eax,%edx
    65f3:	7d 40                	jge    6635 <_ZL20getDeviceContactInfoP12phFuncStructPKc+0x65a>
    65f5:	48 8b 85 18 cf ff ff 	mov    -0x30e8(%rbp),%rax
    65fc:	8b 48 50             	mov    0x50(%rax),%ecx
    65ff:	8b 55 a4             	mov    -0x5c(%rbp),%edx
    6602:	48 8b 85 18 cf ff ff 	mov    -0x30e8(%rbp),%rax
    6609:	48 8b 40 10          	mov    0x10(%rax),%rax
    660d:	41 89 c8             	mov    %ecx,%r8d
    6610:	89 d1                	mov    %edx,%ecx
    6612:	48 8d 15 57 4c 00 00 	lea    0x4c57(%rip),%rdx        # b270 <_fini+0x1c64>
    6619:	be 01 00 00 00       	mov    $0x1,%esi
    661e:	48 89 c7             	mov    %rax,%rdi
    6621:	b8 00 00 00 00       	mov    $0x0,%eax
    6626:	e8 c5 c5 ff ff       	callq  2bf0 <_Z16phLogFuncMessageP11phLogStruct11phLogType_tPKcz@plt>
    662b:	b8 0e 00 00 00       	mov    $0xe,%eax
    6630:	e9 b0 01 00 00       	jmpq   67e5 <_ZL20getDeviceContactInfoP12phFuncStructPKc+0x80a>
    6635:	c7 45 d0 00 00 00 00 	movl   $0x0,-0x30(%rbp)
    663c:	c7 45 d0 00 00 00 00 	movl   $0x0,-0x30(%rbp)
    6643:	eb 1f                	jmp    6664 <_ZL20getDeviceContactInfoP12phFuncStructPKc+0x689>
    6645:	48 8b 85 18 cf ff ff 	mov    -0x30e8(%rbp),%rax
    664c:	8b 55 d0             	mov    -0x30(%rbp),%edx
    664f:	48 63 d2             	movslq %edx,%rdx
    6652:	48 81 c2 24 14 00 00 	add    $0x1424,%rdx
    6659:	c7 04 90 00 00 00 00 	movl   $0x0,(%rax,%rdx,4)
    6660:	83 45 d0 01          	addl   $0x1,-0x30(%rbp)
    6664:	48 8b 85 18 cf ff ff 	mov    -0x30e8(%rbp),%rax
    666b:	8b 40 50             	mov    0x50(%rax),%eax
    666e:	3b 45 d0             	cmp    -0x30(%rbp),%eax
    6671:	7f d2                	jg     6645 <_ZL20getDeviceContactInfoP12phFuncStructPKc+0x66a>
    6673:	48 8b 85 18 cf ff ff 	mov    -0x30e8(%rbp),%rax
    667a:	c7 80 90 60 00 00 01 	movl   $0x1,0x6090(%rax)
    6681:	00 00 00 
    6684:	83 7d f8 00          	cmpl   $0x0,-0x8(%rbp)
    6688:	0f 84 81 00 00 00    	je     670f <_ZL20getDeviceContactInfoP12phFuncStructPKc+0x734>
    668e:	8b 45 f4             	mov    -0xc(%rbp),%eax
    6691:	89 45 d0             	mov    %eax,-0x30(%rbp)
    6694:	eb 5f                	jmp    66f5 <_ZL20getDeviceContactInfoP12phFuncStructPKc+0x71a>
    6696:	48 8b 85 18 cf ff ff 	mov    -0x30e8(%rbp),%rax
    669d:	8b 55 d0             	mov    -0x30(%rbp),%edx
    66a0:	48 63 d2             	movslq %edx,%rdx
    66a3:	48 81 c2 0a 04 00 00 	add    $0x40a,%rdx
    66aa:	48 8b 54 d0 08       	mov    0x8(%rax,%rdx,8),%rdx
    66af:	48 8b 85 18 cf ff ff 	mov    -0x30e8(%rbp),%rax
    66b6:	48 8b 40 10          	mov    0x10(%rax),%rax
    66ba:	48 89 d1             	mov    %rdx,%rcx
    66bd:	48 8d 15 54 4c 00 00 	lea    0x4c54(%rip),%rdx        # b318 <_fini+0x1d0c>
    66c4:	be 06 00 00 00       	mov    $0x6,%esi
    66c9:	48 89 c7             	mov    %rax,%rdi
    66cc:	b8 00 00 00 00       	mov    $0x0,%eax
    66d1:	e8 1a c5 ff ff       	callq  2bf0 <_Z16phLogFuncMessageP11phLogStruct11phLogType_tPKcz@plt>
    66d6:	48 8b 85 18 cf ff ff 	mov    -0x30e8(%rbp),%rax
    66dd:	8b 55 d0             	mov    -0x30(%rbp),%edx
    66e0:	48 63 d2             	movslq %edx,%rdx
    66e3:	48 81 c2 24 14 00 00 	add    $0x1424,%rdx
    66ea:	c7 04 90 01 00 00 00 	movl   $0x1,(%rax,%rdx,4)
    66f1:	83 45 d0 01          	addl   $0x1,-0x30(%rbp)
    66f5:	8b 45 a8             	mov    -0x58(%rbp),%eax
    66f8:	39 45 d0             	cmp    %eax,-0x30(%rbp)
    66fb:	0f 8d b6 00 00 00    	jge    67b7 <_ZL20getDeviceContactInfoP12phFuncStructPKc+0x7dc>
    6701:	81 7d d0 ff 03 00 00 	cmpl   $0x3ff,-0x30(%rbp)
    6708:	7e 8c                	jle    6696 <_ZL20getDeviceContactInfoP12phFuncStructPKc+0x6bb>
    670a:	e9 a8 00 00 00       	jmpq   67b7 <_ZL20getDeviceContactInfoP12phFuncStructPKc+0x7dc>
    670f:	c7 45 d0 00 00 00 00 	movl   $0x0,-0x30(%rbp)
    6716:	e9 87 00 00 00       	jmpq   67a2 <_ZL20getDeviceContactInfoP12phFuncStructPKc+0x7c7>
    671b:	8b 45 d0             	mov    -0x30(%rbp),%eax
    671e:	48 98                	cltq   
    6720:	8b 84 85 a0 cf ff ff 	mov    -0x3060(%rbp,%rax,4),%eax
    6727:	85 c0                	test   %eax,%eax
    6729:	7e 73                	jle    679e <_ZL20getDeviceContactInfoP12phFuncStructPKc+0x7c3>
    672b:	8b 45 d0             	mov    -0x30(%rbp),%eax
    672e:	48 98                	cltq   
    6730:	8b 84 85 a0 cf ff ff 	mov    -0x3060(%rbp,%rax,4),%eax
    6737:	8d 50 ff             	lea    -0x1(%rax),%edx
    673a:	48 8b 85 18 cf ff ff 	mov    -0x30e8(%rbp),%rax
    6741:	48 63 d2             	movslq %edx,%rdx
    6744:	48 81 c2 0a 04 00 00 	add    $0x40a,%rdx
    674b:	48 8b 54 d0 08       	mov    0x8(%rax,%rdx,8),%rdx
    6750:	48 8b 85 18 cf ff ff 	mov    -0x30e8(%rbp),%rax
    6757:	48 8b 40 10          	mov    0x10(%rax),%rax
    675b:	48 89 d1             	mov    %rdx,%rcx
    675e:	48 8d 15 b3 4b 00 00 	lea    0x4bb3(%rip),%rdx        # b318 <_fini+0x1d0c>
    6765:	be 06 00 00 00       	mov    $0x6,%esi
    676a:	48 89 c7             	mov    %rax,%rdi
    676d:	b8 00 00 00 00       	mov    $0x0,%eax
    6772:	e8 79 c4 ff ff       	callq  2bf0 <_Z16phLogFuncMessageP11phLogStruct11phLogType_tPKcz@plt>
    6777:	8b 45 d0             	mov    -0x30(%rbp),%eax
    677a:	48 98                	cltq   
    677c:	8b 84 85 a0 cf ff ff 	mov    -0x3060(%rbp,%rax,4),%eax
    6783:	8d 50 ff             	lea    -0x1(%rax),%edx
    6786:	48 8b 85 18 cf ff ff 	mov    -0x30e8(%rbp),%rax
    678d:	48 63 d2             	movslq %edx,%rdx
    6790:	48 81 c2 24 14 00 00 	add    $0x1424,%rdx
    6797:	c7 04 90 01 00 00 00 	movl   $0x1,(%rax,%rdx,4)
    679e:	83 45 d0 01          	addl   $0x1,-0x30(%rbp)
    67a2:	8b 45 a8             	mov    -0x58(%rbp),%eax
    67a5:	39 45 d0             	cmp    %eax,-0x30(%rbp)
    67a8:	7d 0d                	jge    67b7 <_ZL20getDeviceContactInfoP12phFuncStructPKc+0x7dc>
    67aa:	81 7d d0 ff 03 00 00 	cmpl   $0x3ff,-0x30(%rbp)
    67b1:	0f 8e 64 ff ff ff    	jle    671b <_ZL20getDeviceContactInfoP12phFuncStructPKc+0x740>
    67b7:	48 8b 85 18 cf ff ff 	mov    -0x30e8(%rbp),%rax
    67be:	48 8b 40 10          	mov    0x10(%rax),%rax
    67c2:	48 8d 0d 67 4f 00 00 	lea    0x4f67(%rip),%rcx        # b730 <_ZZL20getDeviceContactInfoP12phFuncStructPKcE12__FUNCTION__>
    67c9:	48 8d 15 6d 4b 00 00 	lea    0x4b6d(%rip),%rdx        # b33d <_fini+0x1d31>
    67d0:	be 06 00 00 00       	mov    $0x6,%esi
    67d5:	48 89 c7             	mov    %rax,%rdi
    67d8:	b8 00 00 00 00       	mov    $0x0,%eax
    67dd:	e8 0e c4 ff ff       	callq  2bf0 <_Z16phLogFuncMessageP11phLogStruct11phLogType_tPKcz@plt>
    67e2:	8b 45 fc             	mov    -0x4(%rbp),%eax
    67e5:	c9                   	leaveq 
    67e6:	c3                   	retq   

00000000000067e7 <_ZL9pollPartsP12phFuncStruct>:
    67e7:	55                   	push   %rbp
    67e8:	48 89 e5             	mov    %rsp,%rbp
    67eb:	48 81 ec 30 20 00 00 	sub    $0x2030,%rsp
    67f2:	48 89 bd d8 df ff ff 	mov    %rdi,-0x2028(%rbp)
    67f9:	48 8b 85 d8 df ff ff 	mov    -0x2028(%rbp),%rax
    6800:	48 8b 40 10          	mov    0x10(%rax),%rax
    6804:	48 8d 0d 3a 4f 00 00 	lea    0x4f3a(%rip),%rcx        # b745 <_ZZL9pollPartsP12phFuncStructE12__FUNCTION__>
    680b:	48 8d 15 36 4b 00 00 	lea    0x4b36(%rip),%rdx        # b348 <_fini+0x1d3c>
    6812:	be 06 00 00 00       	mov    $0x6,%esi
    6817:	48 89 c7             	mov    %rax,%rdi
    681a:	b8 00 00 00 00       	mov    $0x0,%eax
    681f:	e8 cc c3 ff ff       	callq  2bf0 <_Z16phLogFuncMessageP11phLogStruct11phLogType_tPKcz@plt>
    6824:	c7 45 fc 00 00 00 00 	movl   $0x0,-0x4(%rbp)
    682b:	48 8d b5 e0 df ff ff 	lea    -0x2020(%rbp),%rsi
    6832:	b8 00 00 00 00       	mov    $0x0,%eax
    6837:	ba 00 04 00 00       	mov    $0x400,%edx
    683c:	48 89 f7             	mov    %rsi,%rdi
    683f:	48 89 d1             	mov    %rdx,%rcx
    6842:	f3 48 ab             	rep stos %rax,%es:(%rdi)
    6845:	c6 85 e0 df ff ff 30 	movb   $0x30,-0x2020(%rbp)
    684c:	48 c7 45 f0 00 00 00 	movq   $0x0,-0x10(%rbp)
    6853:	00 
    6854:	48 8b 85 d8 df ff ff 	mov    -0x2028(%rbp),%rax
    685b:	48 8d 90 a8 60 00 00 	lea    0x60a8(%rax),%rdx
    6862:	48 8b 85 d8 df ff ff 	mov    -0x2028(%rbp),%rax
    6869:	48 8d 35 e8 4a 00 00 	lea    0x4ae8(%rip),%rsi        # b358 <_fini+0x1d4c>
    6870:	48 89 c7             	mov    %rax,%rdi
    6873:	b8 00 00 00 00       	mov    $0x0,%eax
    6878:	e8 13 c7 ff ff       	callq  2f90 <_Z12phFuncTaSendP12phFuncStructPKcz@plt>
    687d:	89 45 ec             	mov    %eax,-0x14(%rbp)
    6880:	83 7d ec 00          	cmpl   $0x0,-0x14(%rbp)
    6884:	74 08                	je     688e <_ZL9pollPartsP12phFuncStruct+0xa7>
    6886:	8b 45 ec             	mov    -0x14(%rbp),%eax
    6889:	e9 36 01 00 00       	jmpq   69c4 <_ZL9pollPartsP12phFuncStruct+0x1dd>
    688e:	48 8d 95 e0 df ff ff 	lea    -0x2020(%rbp),%rdx
    6895:	48 8b 85 d8 df ff ff 	mov    -0x2028(%rbp),%rax
    689c:	48 89 d1             	mov    %rdx,%rcx
    689f:	48 8d 15 b8 4a 00 00 	lea    0x4ab8(%rip),%rdx        # b35e <_fini+0x1d52>
    68a6:	be 01 00 00 00       	mov    $0x1,%esi
    68ab:	48 89 c7             	mov    %rax,%rdi
    68ae:	b8 00 00 00 00       	mov    $0x0,%eax
    68b3:	e8 a8 c6 ff ff       	callq  2f60 <_Z15phFuncTaReceiveP12phFuncStructiPKcz@plt>
    68b8:	89 45 e8             	mov    %eax,-0x18(%rbp)
    68bb:	83 7d e8 00          	cmpl   $0x0,-0x18(%rbp)
    68bf:	74 08                	je     68c9 <_ZL9pollPartsP12phFuncStruct+0xe2>
    68c1:	8b 45 e8             	mov    -0x18(%rbp),%eax
    68c4:	e9 fb 00 00 00       	jmpq   69c4 <_ZL9pollPartsP12phFuncStruct+0x1dd>
    68c9:	48 8d 85 e0 df ff ff 	lea    -0x2020(%rbp),%rax
    68d0:	ba 0a 00 00 00       	mov    $0xa,%edx
    68d5:	48 8d 35 85 4a 00 00 	lea    0x4a85(%rip),%rsi        # b361 <_fini+0x1d55>
    68dc:	48 89 c7             	mov    %rax,%rdi
    68df:	e8 ac c3 ff ff       	callq  2c90 <strncmp@plt>
    68e4:	85 c0                	test   %eax,%eax
    68e6:	75 2e                	jne    6916 <_ZL9pollPartsP12phFuncStruct+0x12f>
    68e8:	48 8b 85 d8 df ff ff 	mov    -0x2028(%rbp),%rax
    68ef:	48 8b 40 10          	mov    0x10(%rax),%rax
    68f3:	48 8d 15 76 4a 00 00 	lea    0x4a76(%rip),%rdx        # b370 <_fini+0x1d64>
    68fa:	be 06 00 00 00       	mov    $0x6,%esi
    68ff:	48 89 c7             	mov    %rax,%rdi
    6902:	b8 00 00 00 00       	mov    $0x0,%eax
    6907:	e8 e4 c2 ff ff       	callq  2bf0 <_Z16phLogFuncMessageP11phLogStruct11phLogType_tPKcz@plt>
    690c:	b8 12 00 00 00       	mov    $0x12,%eax
    6911:	e9 ae 00 00 00       	jmpq   69c4 <_ZL9pollPartsP12phFuncStruct+0x1dd>
    6916:	48 8d 85 e0 df ff ff 	lea    -0x2020(%rbp),%rax
    691d:	48 8d 35 25 49 00 00 	lea    0x4925(%rip),%rsi        # b249 <_fini+0x1c3d>
    6924:	48 89 c7             	mov    %rax,%rdi
    6927:	e8 b4 c4 ff ff       	callq  2de0 <strstr@plt>
    692c:	48 89 45 f0          	mov    %rax,-0x10(%rbp)
    6930:	48 83 7d f0 00       	cmpq   $0x0,-0x10(%rbp)
    6935:	0f 95 c0             	setne  %al
    6938:	84 c0                	test   %al,%al
    693a:	74 1b                	je     6957 <_ZL9pollPartsP12phFuncStruct+0x170>
    693c:	48 8b 55 f0          	mov    -0x10(%rbp),%rdx
    6940:	48 8b 85 d8 df ff ff 	mov    -0x2028(%rbp),%rax
    6947:	48 89 d6             	mov    %rdx,%rsi
    694a:	48 89 c7             	mov    %rax,%rdi
    694d:	e8 89 f6 ff ff       	callq  5fdb <_ZL20getDeviceContactInfoP12phFuncStructPKc>
    6952:	89 45 fc             	mov    %eax,-0x4(%rbp)
    6955:	eb 3f                	jmp    6996 <_ZL9pollPartsP12phFuncStruct+0x1af>
    6957:	48 8d 85 e0 df ff ff 	lea    -0x2020(%rbp),%rax
    695e:	48 8d 35 8c 48 00 00 	lea    0x488c(%rip),%rsi        # b1f1 <_fini+0x1be5>
    6965:	48 89 c7             	mov    %rax,%rdi
    6968:	e8 73 c4 ff ff       	callq  2de0 <strstr@plt>
    696d:	48 89 45 f0          	mov    %rax,-0x10(%rbp)
    6971:	48 83 7d f0 00       	cmpq   $0x0,-0x10(%rbp)
    6976:	0f 95 c0             	setne  %al
    6979:	84 c0                	test   %al,%al
    697b:	74 19                	je     6996 <_ZL9pollPartsP12phFuncStruct+0x1af>
    697d:	48 8b 55 f0          	mov    -0x10(%rbp),%rdx
    6981:	48 8b 85 d8 df ff ff 	mov    -0x2028(%rbp),%rax
    6988:	48 89 d6             	mov    %rdx,%rsi
    698b:	48 89 c7             	mov    %rax,%rdi
    698e:	e8 48 f6 ff ff       	callq  5fdb <_ZL20getDeviceContactInfoP12phFuncStructPKc>
    6993:	89 45 fc             	mov    %eax,-0x4(%rbp)
    6996:	48 8b 85 d8 df ff ff 	mov    -0x2028(%rbp),%rax
    699d:	48 8b 40 10          	mov    0x10(%rax),%rax
    69a1:	48 8d 0d 9d 4d 00 00 	lea    0x4d9d(%rip),%rcx        # b745 <_ZZL9pollPartsP12phFuncStructE12__FUNCTION__>
    69a8:	48 8d 15 8e 49 00 00 	lea    0x498e(%rip),%rdx        # b33d <_fini+0x1d31>
    69af:	be 06 00 00 00       	mov    $0x6,%esi
    69b4:	48 89 c7             	mov    %rax,%rdi
    69b7:	b8 00 00 00 00       	mov    $0x0,%eax
    69bc:	e8 2f c2 ff ff       	callq  2bf0 <_Z16phLogFuncMessageP11phLogStruct11phLogType_tPKcz@plt>
    69c1:	8b 45 fc             	mov    -0x4(%rbp),%eax
    69c4:	c9                   	leaveq 
    69c5:	c3                   	retq   

00000000000069c6 <_ZL12waitForPartsP12phFuncStruct>:
    69c6:	55                   	push   %rbp
    69c7:	48 89 e5             	mov    %rsp,%rbp
    69ca:	48 83 ec 20          	sub    $0x20,%rsp
    69ce:	48 89 7d e8          	mov    %rdi,-0x18(%rbp)
    69d2:	48 8b 45 e8          	mov    -0x18(%rbp),%rax
    69d6:	48 8b 40 10          	mov    0x10(%rax),%rax
    69da:	48 8d 0d 6e 4d 00 00 	lea    0x4d6e(%rip),%rcx        # b74f <_ZZL12waitForPartsP12phFuncStructE12__FUNCTION__>
    69e1:	48 8d 15 e4 47 00 00 	lea    0x47e4(%rip),%rdx        # b1cc <_fini+0x1bc0>
    69e8:	be 06 00 00 00       	mov    $0x6,%esi
    69ed:	48 89 c7             	mov    %rax,%rdi
    69f0:	b8 00 00 00 00       	mov    $0x0,%eax
    69f5:	e8 f6 c1 ff ff       	callq  2bf0 <_Z16phLogFuncMessageP11phLogStruct11phLogType_tPKcz@plt>
    69fa:	c7 45 fc 00 00 00 00 	movl   $0x0,-0x4(%rbp)
    6a01:	83 7d fc 05          	cmpl   $0x5,-0x4(%rbp)
    6a05:	75 07                	jne    6a0e <_ZL12waitForPartsP12phFuncStruct+0x48>
    6a07:	b8 0c 00 00 00       	mov    $0xc,%eax
    6a0c:	eb 6f                	jmp    6a7d <_ZL12waitForPartsP12phFuncStruct+0xb7>
    6a0e:	83 45 fc 01          	addl   $0x1,-0x4(%rbp)
    6a12:	48 8b 45 e8          	mov    -0x18(%rbp),%rax
    6a16:	48 89 c7             	mov    %rax,%rdi
    6a19:	e8 c9 fd ff ff       	callq  67e7 <_ZL9pollPartsP12phFuncStruct>
    6a1e:	89 45 f8             	mov    %eax,-0x8(%rbp)
    6a21:	83 7d f8 00          	cmpl   $0x0,-0x8(%rbp)
    6a25:	74 05                	je     6a2c <_ZL12waitForPartsP12phFuncStruct+0x66>
    6a27:	8b 45 f8             	mov    -0x8(%rbp),%eax
    6a2a:	eb 51                	jmp    6a7d <_ZL12waitForPartsP12phFuncStruct+0xb7>
    6a2c:	48 8b 45 e8          	mov    -0x18(%rbp),%rax
    6a30:	8b 80 90 60 00 00    	mov    0x6090(%rax),%eax
    6a36:	85 c0                	test   %eax,%eax
    6a38:	75 15                	jne    6a4f <_ZL12waitForPartsP12phFuncStruct+0x89>
    6a3a:	48 8b 45 e8          	mov    -0x18(%rbp),%rax
    6a3e:	48 8b 80 88 50 00 00 	mov    0x5088(%rax),%rax
    6a45:	48 89 c7             	mov    %rax,%rdi
    6a48:	e8 c8 f0 ff ff       	callq  5b15 <_ZL13localDelay_usl>
    6a4d:	eb b2                	jmp    6a01 <_ZL12waitForPartsP12phFuncStruct+0x3b>
    6a4f:	90                   	nop
    6a50:	48 8b 45 e8          	mov    -0x18(%rbp),%rax
    6a54:	48 8b 40 10          	mov    0x10(%rax),%rax
    6a58:	48 8d 0d f0 4c 00 00 	lea    0x4cf0(%rip),%rcx        # b74f <_ZZL12waitForPartsP12phFuncStructE12__FUNCTION__>
    6a5f:	48 8d 15 d7 48 00 00 	lea    0x48d7(%rip),%rdx        # b33d <_fini+0x1d31>
    6a66:	be 06 00 00 00       	mov    $0x6,%esi
    6a6b:	48 89 c7             	mov    %rax,%rdi
    6a6e:	b8 00 00 00 00       	mov    $0x0,%eax
    6a73:	e8 78 c1 ff ff       	callq  2bf0 <_Z16phLogFuncMessageP11phLogStruct11phLogType_tPKcz@plt>
    6a78:	b8 00 00 00 00       	mov    $0x0,%eax
    6a7d:	c9                   	leaveq 
    6a7e:	c3                   	retq   

0000000000006a7f <_ZL12setupBinCodeP12phFuncStructlPc>:
    6a7f:	55                   	push   %rbp
    6a80:	48 89 e5             	mov    %rsp,%rbp
    6a83:	48 83 ec 30          	sub    $0x30,%rsp
    6a87:	48 89 7d e8          	mov    %rdi,-0x18(%rbp)
    6a8b:	48 89 75 e0          	mov    %rsi,-0x20(%rbp)
    6a8f:	48 89 55 d8          	mov    %rdx,-0x28(%rbp)
    6a93:	c7 45 fc 00 00 00 00 	movl   $0x0,-0x4(%rbp)
    6a9a:	48 8b 45 e8          	mov    -0x18(%rbp),%rax
    6a9e:	48 8b 80 60 40 00 00 	mov    0x4060(%rax),%rax
    6aa5:	48 85 c0             	test   %rax,%rax
    6aa8:	0f 84 aa 00 00 00    	je     6b58 <_ZL12setupBinCodeP12phFuncStructlPc+0xd9>
    6aae:	48 83 7d e0 00       	cmpq   $0x0,-0x20(%rbp)
    6ab3:	78 12                	js     6ac7 <_ZL12setupBinCodeP12phFuncStructlPc+0x48>
    6ab5:	48 8b 45 e8          	mov    -0x18(%rbp),%rax
    6ab9:	8b 80 58 40 00 00    	mov    0x4058(%rax),%eax
    6abf:	48 98                	cltq   
    6ac1:	48 3b 45 e0          	cmp    -0x20(%rbp),%rax
    6ac5:	7f 46                	jg     6b0d <_ZL12setupBinCodeP12phFuncStructlPc+0x8e>
    6ac7:	48 8b 45 e8          	mov    -0x18(%rbp),%rax
    6acb:	8b 88 58 40 00 00    	mov    0x4058(%rax),%ecx
    6ad1:	48 8b 45 e8          	mov    -0x18(%rbp),%rax
    6ad5:	48 8b 40 10          	mov    0x10(%rax),%rax
    6ad9:	48 8b 55 e0          	mov    -0x20(%rbp),%rdx
    6add:	4c 8d 0d ad 48 00 00 	lea    0x48ad(%rip),%r9        # b391 <_fini+0x1d85>
    6ae4:	41 89 c8             	mov    %ecx,%r8d
    6ae7:	48 89 d1             	mov    %rdx,%rcx
    6aea:	48 8d 15 b7 48 00 00 	lea    0x48b7(%rip),%rdx        # b3a8 <_fini+0x1d9c>
    6af1:	be 01 00 00 00       	mov    $0x1,%esi
    6af6:	48 89 c7             	mov    %rax,%rdi
    6af9:	b8 00 00 00 00       	mov    $0x0,%eax
    6afe:	e8 ed c0 ff ff       	callq  2bf0 <_Z16phLogFuncMessageP11phLogStruct11phLogType_tPKcz@plt>
    6b03:	b8 07 00 00 00       	mov    $0x7,%eax
    6b08:	e9 92 00 00 00       	jmpq   6b9f <_ZL12setupBinCodeP12phFuncStructlPc+0x120>
    6b0d:	48 8b 45 e8          	mov    -0x18(%rbp),%rax
    6b11:	48 8b 80 60 40 00 00 	mov    0x4060(%rax),%rax
    6b18:	48 8b 55 e0          	mov    -0x20(%rbp),%rdx
    6b1c:	48 c1 e2 03          	shl    $0x3,%rdx
    6b20:	48 01 d0             	add    %rdx,%rax
    6b23:	48 8b 00             	mov    (%rax),%rax
    6b26:	ba 0a 00 00 00       	mov    $0xa,%edx
    6b2b:	be 00 00 00 00       	mov    $0x0,%esi
    6b30:	48 89 c7             	mov    %rax,%rdi
    6b33:	e8 08 c3 ff ff       	callq  2e40 <strtol@plt>
    6b38:	89 45 f8             	mov    %eax,-0x8(%rbp)
    6b3b:	8b 55 f8             	mov    -0x8(%rbp),%edx
    6b3e:	48 8b 45 d8          	mov    -0x28(%rbp),%rax
    6b42:	48 8d 35 c6 48 00 00 	lea    0x48c6(%rip),%rsi        # b40f <_fini+0x1e03>
    6b49:	48 89 c7             	mov    %rax,%rdi
    6b4c:	b8 00 00 00 00       	mov    $0x0,%eax
    6b51:	e8 3a c2 ff ff       	callq  2d90 <sprintf@plt>
    6b56:	eb 44                	jmp    6b9c <_ZL12setupBinCodeP12phFuncStructlPc+0x11d>
    6b58:	48 8b 45 e8          	mov    -0x18(%rbp),%rax
    6b5c:	48 8b 40 10          	mov    0x10(%rax),%rax
    6b60:	48 8b 55 e0          	mov    -0x20(%rbp),%rdx
    6b64:	48 89 d1             	mov    %rdx,%rcx
    6b67:	48 8d 15 aa 48 00 00 	lea    0x48aa(%rip),%rdx        # b418 <_fini+0x1e0c>
    6b6e:	be 06 00 00 00       	mov    $0x6,%esi
    6b73:	48 89 c7             	mov    %rax,%rdi
    6b76:	b8 00 00 00 00       	mov    $0x0,%eax
    6b7b:	e8 70 c0 ff ff       	callq  2bf0 <_Z16phLogFuncMessageP11phLogStruct11phLogType_tPKcz@plt>
    6b80:	48 8b 55 e0          	mov    -0x20(%rbp),%rdx
    6b84:	48 8b 45 d8          	mov    -0x28(%rbp),%rax
    6b88:	48 8d 35 b3 48 00 00 	lea    0x48b3(%rip),%rsi        # b442 <_fini+0x1e36>
    6b8f:	48 89 c7             	mov    %rax,%rdi
    6b92:	b8 00 00 00 00       	mov    $0x0,%eax
    6b97:	e8 f4 c1 ff ff       	callq  2d90 <sprintf@plt>
    6b9c:	8b 45 fc             	mov    -0x4(%rbp),%eax
    6b9f:	c9                   	leaveq 
    6ba0:	c3                   	retq   

0000000000006ba1 <_ZL13binAndReprobeP12phFuncStructP19phEstateSiteUsage_tPlS3_>:
    6ba1:	55                   	push   %rbp
    6ba2:	48 89 e5             	mov    %rsp,%rbp
    6ba5:	53                   	push   %rbx
    6ba6:	48 81 ec 08 21 00 00 	sub    $0x2108,%rsp
    6bad:	48 89 bd 08 df ff ff 	mov    %rdi,-0x20f8(%rbp)
    6bb4:	48 89 b5 00 df ff ff 	mov    %rsi,-0x2100(%rbp)
    6bbb:	48 89 95 f8 de ff ff 	mov    %rdx,-0x2108(%rbp)
    6bc2:	48 89 8d f0 de ff ff 	mov    %rcx,-0x2110(%rbp)
    6bc9:	c7 45 ec 00 00 00 00 	movl   $0x0,-0x14(%rbp)
    6bd0:	48 c7 85 10 df ff ff 	movq   $0x0,-0x20f0(%rbp)
    6bd7:	00 00 00 00 
    6bdb:	48 8d b5 18 df ff ff 	lea    -0x20e8(%rbp),%rsi
    6be2:	b8 00 00 00 00       	mov    $0x0,%eax
    6be7:	ba 07 00 00 00       	mov    $0x7,%edx
    6bec:	48 89 f7             	mov    %rsi,%rdi
    6bef:	48 89 d1             	mov    %rdx,%rcx
    6bf2:	f3 48 ab             	rep stos %rax,%es:(%rdi)
    6bf5:	48 c7 85 50 df ff ff 	movq   $0x0,-0x20b0(%rbp)
    6bfc:	00 00 00 00 
    6c00:	48 8d b5 58 df ff ff 	lea    -0x20a8(%rbp),%rsi
    6c07:	b8 00 00 00 00       	mov    $0x0,%eax
    6c0c:	ba 0f 00 00 00       	mov    $0xf,%edx
    6c11:	48 89 f7             	mov    %rsi,%rdi
    6c14:	48 89 d1             	mov    %rdx,%rcx
    6c17:	f3 48 ab             	rep stos %rax,%es:(%rdi)
    6c1a:	48 c7 85 d0 df ff ff 	movq   $0x0,-0x2030(%rbp)
    6c21:	00 00 00 00 
    6c25:	48 8d b5 d8 df ff ff 	lea    -0x2028(%rbp),%rsi
    6c2c:	b8 00 00 00 00       	mov    $0x0,%eax
    6c31:	ba ff 03 00 00       	mov    $0x3ff,%edx
    6c36:	48 89 f7             	mov    %rsi,%rdi
    6c39:	48 89 d1             	mov    %rdx,%rcx
    6c3c:	f3 48 ab             	rep stos %rax,%es:(%rdi)
    6c3f:	c7 45 e8 00 00 00 00 	movl   $0x0,-0x18(%rbp)
    6c46:	c7 45 e4 00 00 00 00 	movl   $0x0,-0x1c(%rbp)
    6c4d:	48 8d 85 d0 df ff ff 	lea    -0x2030(%rbp),%rax
    6c54:	48 bb 52 45 53 55 4c 	movabs $0x20544c55534552,%rbx
    6c5b:	54 20 00 
    6c5e:	48 89 18             	mov    %rbx,(%rax)
    6c61:	48 8b 85 08 df ff ff 	mov    -0x20f8(%rbp),%rax
    6c68:	8b 40 38             	mov    0x38(%rax),%eax
    6c6b:	85 c0                	test   %eax,%eax
    6c6d:	74 05                	je     6c74 <_ZL13binAndReprobeP12phFuncStructP19phEstateSiteUsage_tPlS3_+0xd3>
    6c6f:	e9 5b 02 00 00       	jmpq   6ecf <_ZL13binAndReprobeP12phFuncStructP19phEstateSiteUsage_tPlS3_+0x32e>
    6c74:	c7 45 e4 00 00 00 00 	movl   $0x0,-0x1c(%rbp)
    6c7b:	e9 3b 02 00 00       	jmpq   6ebb <_ZL13binAndReprobeP12phFuncStructP19phEstateSiteUsage_tPlS3_+0x31a>
    6c80:	48 8b 85 08 df ff ff 	mov    -0x20f8(%rbp),%rax
    6c87:	8b 55 e4             	mov    -0x1c(%rbp),%edx
    6c8a:	48 63 d2             	movslq %edx,%rdx
    6c8d:	48 83 c2 14          	add    $0x14,%rdx
    6c91:	8b 44 90 04          	mov    0x4(%rax,%rdx,4),%eax
    6c95:	85 c0                	test   %eax,%eax
    6c97:	0f 84 1a 02 00 00    	je     6eb7 <_ZL13binAndReprobeP12phFuncStructP19phEstateSiteUsage_tPlS3_+0x316>
    6c9d:	8b 45 e4             	mov    -0x1c(%rbp),%eax
    6ca0:	48 98                	cltq   
    6ca2:	48 8d 14 85 00 00 00 	lea    0x0(,%rax,4),%rdx
    6ca9:	00 
    6caa:	48 8b 85 00 df ff ff 	mov    -0x2100(%rbp),%rax
    6cb1:	48 01 d0             	add    %rdx,%rax
    6cb4:	8b 00                	mov    (%rax),%eax
    6cb6:	85 c0                	test   %eax,%eax
    6cb8:	74 22                	je     6cdc <_ZL13binAndReprobeP12phFuncStructP19phEstateSiteUsage_tPlS3_+0x13b>
    6cba:	8b 45 e4             	mov    -0x1c(%rbp),%eax
    6cbd:	48 98                	cltq   
    6cbf:	48 8d 14 85 00 00 00 	lea    0x0(,%rax,4),%rdx
    6cc6:	00 
    6cc7:	48 8b 85 00 df ff ff 	mov    -0x2100(%rbp),%rax
    6cce:	48 01 d0             	add    %rdx,%rax
    6cd1:	8b 00                	mov    (%rax),%eax
    6cd3:	83 f8 03             	cmp    $0x3,%eax
    6cd6:	0f 85 db 01 00 00    	jne    6eb7 <_ZL13binAndReprobeP12phFuncStructP19phEstateSiteUsage_tPlS3_+0x316>
    6cdc:	8b 45 e4             	mov    -0x1c(%rbp),%eax
    6cdf:	48 98                	cltq   
    6ce1:	48 8d 14 c5 00 00 00 	lea    0x0(,%rax,8),%rdx
    6ce8:	00 
    6ce9:	48 8b 85 f0 de ff ff 	mov    -0x2110(%rbp),%rax
    6cf0:	48 01 d0             	add    %rdx,%rax
    6cf3:	48 8b 08             	mov    (%rax),%rcx
    6cf6:	48 8d 95 10 df ff ff 	lea    -0x20f0(%rbp),%rdx
    6cfd:	48 8b 85 08 df ff ff 	mov    -0x20f8(%rbp),%rax
    6d04:	48 89 ce             	mov    %rcx,%rsi
    6d07:	48 89 c7             	mov    %rax,%rdi
    6d0a:	e8 70 fd ff ff       	callq  6a7f <_ZL12setupBinCodeP12phFuncStructlPc>
    6d0f:	89 45 ec             	mov    %eax,-0x14(%rbp)
    6d12:	83 7d ec 00          	cmpl   $0x0,-0x14(%rbp)
    6d16:	0f 85 54 01 00 00    	jne    6e70 <_ZL13binAndReprobeP12phFuncStructP19phEstateSiteUsage_tPlS3_+0x2cf>
    6d1c:	48 8b 85 08 df ff ff 	mov    -0x20f8(%rbp),%rax
    6d23:	8b 80 2c 61 00 00    	mov    0x612c(%rax),%eax
    6d29:	85 c0                	test   %eax,%eax
    6d2b:	74 5c                	je     6d89 <_ZL13binAndReprobeP12phFuncStructP19phEstateSiteUsage_tPlS3_+0x1e8>
    6d2d:	8b 45 e4             	mov    -0x1c(%rbp),%eax
    6d30:	48 98                	cltq   
    6d32:	48 c1 e0 06          	shl    $0x6,%rax
    6d36:	48 89 c2             	mov    %rax,%rdx
    6d39:	48 8d 05 e0 81 20 00 	lea    0x2081e0(%rip),%rax        # 20ef20 <_ZL15handlerSiteName>
    6d40:	48 01 c2             	add    %rax,%rdx
    6d43:	48 8d 85 d0 df ff ff 	lea    -0x2030(%rbp),%rax
    6d4a:	48 89 d6             	mov    %rdx,%rsi
    6d4d:	48 89 c7             	mov    %rax,%rdi
    6d50:	e8 cb c0 ff ff       	callq  2e20 <strcat@plt>
    6d55:	48 8d 85 d0 df ff ff 	lea    -0x2030(%rbp),%rax
    6d5c:	48 c7 c1 ff ff ff ff 	mov    $0xffffffffffffffff,%rcx
    6d63:	48 89 c2             	mov    %rax,%rdx
    6d66:	b8 00 00 00 00       	mov    $0x0,%eax
    6d6b:	48 89 d7             	mov    %rdx,%rdi
    6d6e:	f2 ae                	repnz scas %es:(%rdi),%al
    6d70:	48 89 c8             	mov    %rcx,%rax
    6d73:	48 f7 d0             	not    %rax
    6d76:	48 8d 50 ff          	lea    -0x1(%rax),%rdx
    6d7a:	48 8d 85 d0 df ff ff 	lea    -0x2030(%rbp),%rax
    6d81:	48 01 d0             	add    %rdx,%rax
    6d84:	66 c7 00 2c 00       	movw   $0x2c,(%rax)
    6d89:	48 8d 95 10 df ff ff 	lea    -0x20f0(%rbp),%rdx
    6d90:	48 8d 85 d0 df ff ff 	lea    -0x2030(%rbp),%rax
    6d97:	48 89 d6             	mov    %rdx,%rsi
    6d9a:	48 89 c7             	mov    %rax,%rdi
    6d9d:	e8 7e c0 ff ff       	callq  2e20 <strcat@plt>
    6da2:	48 8b 85 08 df ff ff 	mov    -0x20f8(%rbp),%rax
    6da9:	8b 80 2c 61 00 00    	mov    0x612c(%rax),%eax
    6daf:	85 c0                	test   %eax,%eax
    6db1:	74 36                	je     6de9 <_ZL13binAndReprobeP12phFuncStructP19phEstateSiteUsage_tPlS3_+0x248>
    6db3:	48 8d 85 d0 df ff ff 	lea    -0x2030(%rbp),%rax
    6dba:	48 c7 c1 ff ff ff ff 	mov    $0xffffffffffffffff,%rcx
    6dc1:	48 89 c2             	mov    %rax,%rdx
    6dc4:	b8 00 00 00 00       	mov    $0x0,%eax
    6dc9:	48 89 d7             	mov    %rdx,%rdi
    6dcc:	f2 ae                	repnz scas %es:(%rdi),%al
    6dce:	48 89 c8             	mov    %rcx,%rax
    6dd1:	48 f7 d0             	not    %rax
    6dd4:	48 8d 50 ff          	lea    -0x1(%rax),%rdx
    6dd8:	48 8d 85 d0 df ff ff 	lea    -0x2030(%rbp),%rax
    6ddf:	48 01 d0             	add    %rdx,%rax
    6de2:	66 c7 00 2c 00       	movw   $0x2c,(%rax)
    6de7:	eb 34                	jmp    6e1d <_ZL13binAndReprobeP12phFuncStructP19phEstateSiteUsage_tPlS3_+0x27c>
    6de9:	48 8d 85 d0 df ff ff 	lea    -0x2030(%rbp),%rax
    6df0:	48 c7 c1 ff ff ff ff 	mov    $0xffffffffffffffff,%rcx
    6df7:	48 89 c2             	mov    %rax,%rdx
    6dfa:	b8 00 00 00 00       	mov    $0x0,%eax
    6dff:	48 89 d7             	mov    %rdx,%rdi
    6e02:	f2 ae                	repnz scas %es:(%rdi),%al
    6e04:	48 89 c8             	mov    %rcx,%rax
    6e07:	48 f7 d0             	not    %rax
    6e0a:	48 8d 50 ff          	lea    -0x1(%rax),%rdx
    6e0e:	48 8d 85 d0 df ff ff 	lea    -0x2030(%rbp),%rax
    6e15:	48 01 d0             	add    %rdx,%rax
    6e18:	66 c7 00 20 00       	movw   $0x20,(%rax)
    6e1d:	48 8b 85 08 df ff ff 	mov    -0x20f8(%rbp),%rax
    6e24:	8b 55 e4             	mov    -0x1c(%rbp),%edx
    6e27:	48 63 d2             	movslq %edx,%rdx
    6e2a:	48 81 c2 0a 04 00 00 	add    $0x40a,%rdx
    6e31:	48 8b 54 d0 08       	mov    0x8(%rax,%rdx,8),%rdx
    6e36:	48 8b 85 08 df ff ff 	mov    -0x20f8(%rbp),%rax
    6e3d:	48 8b 40 10          	mov    0x10(%rax),%rax
    6e41:	48 8d 8d 10 df ff ff 	lea    -0x20f0(%rbp),%rcx
    6e48:	49 89 c8             	mov    %rcx,%r8
    6e4b:	48 89 d1             	mov    %rdx,%rcx
    6e4e:	48 8d 15 f3 45 00 00 	lea    0x45f3(%rip),%rdx        # b448 <_fini+0x1e3c>
    6e55:	be 06 00 00 00       	mov    $0x6,%esi
    6e5a:	48 89 c7             	mov    %rax,%rdi
    6e5d:	b8 00 00 00 00       	mov    $0x0,%eax
    6e62:	e8 89 bd ff ff       	callq  2bf0 <_Z16phLogFuncMessageP11phLogStruct11phLogType_tPKcz@plt>
    6e67:	c7 45 e8 01 00 00 00 	movl   $0x1,-0x18(%rbp)
    6e6e:	eb 47                	jmp    6eb7 <_ZL13binAndReprobeP12phFuncStructP19phEstateSiteUsage_tPlS3_+0x316>
    6e70:	48 8b 85 08 df ff ff 	mov    -0x20f8(%rbp),%rax
    6e77:	8b 55 e4             	mov    -0x1c(%rbp),%edx
    6e7a:	48 63 d2             	movslq %edx,%rdx
    6e7d:	48 81 c2 0a 04 00 00 	add    $0x40a,%rdx
    6e84:	48 8b 54 d0 08       	mov    0x8(%rax,%rdx,8),%rdx
    6e89:	48 8b 85 08 df ff ff 	mov    -0x20f8(%rbp),%rax
    6e90:	48 8b 40 10          	mov    0x10(%rax),%rax
    6e94:	48 89 d1             	mov    %rdx,%rcx
    6e97:	48 8d 15 d2 45 00 00 	lea    0x45d2(%rip),%rdx        # b470 <_fini+0x1e64>
    6e9e:	be 01 00 00 00       	mov    $0x1,%esi
    6ea3:	48 89 c7             	mov    %rax,%rdi
    6ea6:	b8 00 00 00 00       	mov    $0x0,%eax
    6eab:	e8 40 bd ff ff       	callq  2bf0 <_Z16phLogFuncMessageP11phLogStruct11phLogType_tPKcz@plt>
    6eb0:	c7 45 e8 00 00 00 00 	movl   $0x0,-0x18(%rbp)
    6eb7:	83 45 e4 01          	addl   $0x1,-0x1c(%rbp)
    6ebb:	48 8b 85 08 df ff ff 	mov    -0x20f8(%rbp),%rax
    6ec2:	8b 40 50             	mov    0x50(%rax),%eax
    6ec5:	3b 45 e4             	cmp    -0x1c(%rbp),%eax
    6ec8:	0f 8f b2 fd ff ff    	jg     6c80 <_ZL13binAndReprobeP12phFuncStructP19phEstateSiteUsage_tPlS3_+0xdf>
    6ece:	90                   	nop
    6ecf:	48 8b 85 08 df ff ff 	mov    -0x20f8(%rbp),%rax
    6ed6:	c7 80 2c 61 00 00 00 	movl   $0x0,0x612c(%rax)
    6edd:	00 00 00 
    6ee0:	83 7d e8 00          	cmpl   $0x0,-0x18(%rbp)
    6ee4:	74 76                	je     6f5c <_ZL13binAndReprobeP12phFuncStructP19phEstateSiteUsage_tPlS3_+0x3bb>
    6ee6:	48 8b 85 08 df ff ff 	mov    -0x20f8(%rbp),%rax
    6eed:	48 8d 88 a8 60 00 00 	lea    0x60a8(%rax),%rcx
    6ef4:	48 8d 95 d0 df ff ff 	lea    -0x2030(%rbp),%rdx
    6efb:	48 8b 85 08 df ff ff 	mov    -0x20f8(%rbp),%rax
    6f02:	48 8d 35 8b 45 00 00 	lea    0x458b(%rip),%rsi        # b494 <_fini+0x1e88>
    6f09:	48 89 c7             	mov    %rax,%rdi
    6f0c:	b8 00 00 00 00       	mov    $0x0,%eax
    6f11:	e8 7a c0 ff ff       	callq  2f90 <_Z12phFuncTaSendP12phFuncStructPKcz@plt>
    6f16:	89 45 e0             	mov    %eax,-0x20(%rbp)
    6f19:	83 7d e0 00          	cmpl   $0x0,-0x20(%rbp)
    6f1d:	74 05                	je     6f24 <_ZL13binAndReprobeP12phFuncStructP19phEstateSiteUsage_tPlS3_+0x383>
    6f1f:	8b 45 e0             	mov    -0x20(%rbp),%eax
    6f22:	eb 3b                	jmp    6f5f <_ZL13binAndReprobeP12phFuncStructP19phEstateSiteUsage_tPlS3_+0x3be>
    6f24:	48 8d 95 50 df ff ff 	lea    -0x20b0(%rbp),%rdx
    6f2b:	48 8b 85 08 df ff ff 	mov    -0x20f8(%rbp),%rax
    6f32:	48 89 d1             	mov    %rdx,%rcx
    6f35:	48 8d 15 22 44 00 00 	lea    0x4422(%rip),%rdx        # b35e <_fini+0x1d52>
    6f3c:	be 01 00 00 00       	mov    $0x1,%esi
    6f41:	48 89 c7             	mov    %rax,%rdi
    6f44:	b8 00 00 00 00       	mov    $0x0,%eax
    6f49:	e8 12 c0 ff ff       	callq  2f60 <_Z15phFuncTaReceiveP12phFuncStructiPKcz@plt>
    6f4e:	89 45 dc             	mov    %eax,-0x24(%rbp)
    6f51:	83 7d dc 00          	cmpl   $0x0,-0x24(%rbp)
    6f55:	74 05                	je     6f5c <_ZL13binAndReprobeP12phFuncStructP19phEstateSiteUsage_tPlS3_+0x3bb>
    6f57:	8b 45 dc             	mov    -0x24(%rbp),%eax
    6f5a:	eb 03                	jmp    6f5f <_ZL13binAndReprobeP12phFuncStructP19phEstateSiteUsage_tPlS3_+0x3be>
    6f5c:	8b 45 ec             	mov    -0x14(%rbp),%eax
    6f5f:	48 81 c4 08 21 00 00 	add    $0x2108,%rsp
    6f66:	5b                   	pop    %rbx
    6f67:	5d                   	pop    %rbp
    6f68:	c3                   	retq   

0000000000006f69 <_Z11privateInitP12phFuncStruct>:
    6f69:	55                   	push   %rbp
    6f6a:	48 89 e5             	mov    %rsp,%rbp
    6f6d:	48 83 ec 20          	sub    $0x20,%rsp
    6f71:	48 89 7d e8          	mov    %rdi,-0x18(%rbp)
    6f75:	c7 45 f8 00 00 00 00 	movl   $0x0,-0x8(%rbp)
    6f7c:	c7 45 fc 00 00 00 00 	movl   $0x0,-0x4(%rbp)
    6f83:	48 8b 45 e8          	mov    -0x18(%rbp),%rax
    6f87:	48 89 c7             	mov    %rax,%rdi
    6f8a:	e8 e1 bf ff ff       	callq  2f70 <_Z16phFuncTaAskAbortP12phFuncStruct@plt>
    6f8f:	85 c0                	test   %eax,%eax
    6f91:	0f 95 c0             	setne  %al
    6f94:	84 c0                	test   %al,%al
    6f96:	74 0a                	je     6fa2 <_Z11privateInitP12phFuncStruct+0x39>
    6f98:	b8 0d 00 00 00       	mov    $0xd,%eax
    6f9d:	e9 fe 00 00 00       	jmpq   70a0 <_Z11privateInitP12phFuncStruct+0x137>
    6fa2:	48 8b 45 e8          	mov    -0x18(%rbp),%rax
    6fa6:	8b 50 50             	mov    0x50(%rax),%edx
    6fa9:	48 8b 45 e8          	mov    -0x18(%rbp),%rax
    6fad:	89 90 80 40 00 00    	mov    %edx,0x4080(%rax)
    6fb3:	c7 45 fc 00 00 00 00 	movl   $0x0,-0x4(%rbp)
    6fba:	eb 43                	jmp    6fff <_Z11privateInitP12phFuncStruct+0x96>
    6fbc:	48 8b 45 e8          	mov    -0x18(%rbp),%rax
    6fc0:	8b 55 fc             	mov    -0x4(%rbp),%edx
    6fc3:	48 63 d2             	movslq %edx,%rdx
    6fc6:	48 83 c2 14          	add    $0x14,%rdx
    6fca:	8b 54 90 04          	mov    0x4(%rax,%rdx,4),%edx
    6fce:	48 8b 45 e8          	mov    -0x18(%rbp),%rax
    6fd2:	8b 4d fc             	mov    -0x4(%rbp),%ecx
    6fd5:	48 63 c9             	movslq %ecx,%rcx
    6fd8:	48 81 c1 20 10 00 00 	add    $0x1020,%rcx
    6fdf:	89 54 88 04          	mov    %edx,0x4(%rax,%rcx,4)
    6fe3:	48 8b 45 e8          	mov    -0x18(%rbp),%rax
    6fe7:	8b 55 fc             	mov    -0x4(%rbp),%edx
    6fea:	48 63 d2             	movslq %edx,%rdx
    6fed:	48 81 c2 24 14 00 00 	add    $0x1424,%rdx
    6ff4:	c7 04 90 00 00 00 00 	movl   $0x0,(%rax,%rdx,4)
    6ffb:	83 45 fc 01          	addl   $0x1,-0x4(%rbp)
    6fff:	48 8b 45 e8          	mov    -0x18(%rbp),%rax
    7003:	8b 80 80 40 00 00    	mov    0x4080(%rax),%eax
    7009:	3b 45 fc             	cmp    -0x4(%rbp),%eax
    700c:	7f ae                	jg     6fbc <_Z11privateInitP12phFuncStruct+0x53>
    700e:	48 8b 45 e8          	mov    -0x18(%rbp),%rax
    7012:	c7 80 84 50 00 00 01 	movl   $0x1,0x5084(%rax)
    7019:	00 00 00 
    701c:	48 8b 45 e8          	mov    -0x18(%rbp),%rax
    7020:	48 c7 80 88 50 00 00 	movq   $0x30d40,0x5088(%rax)
    7027:	40 0d 03 00 
    702b:	48 8b 45 e8          	mov    -0x18(%rbp),%rax
    702f:	c7 80 90 60 00 00 00 	movl   $0x0,0x6090(%rax)
    7036:	00 00 00 
    7039:	48 8b 45 e8          	mov    -0x18(%rbp),%rax
    703d:	48 c7 80 98 60 00 00 	movq   $0x0,0x6098(%rax)
    7044:	00 00 00 00 
    7048:	48 8b 45 e8          	mov    -0x18(%rbp),%rax
    704c:	c7 80 a0 60 00 00 00 	movl   $0x0,0x60a0(%rax)
    7053:	00 00 00 
    7056:	48 8b 45 e8          	mov    -0x18(%rbp),%rax
    705a:	c7 80 2c 61 00 00 00 	movl   $0x0,0x612c(%rax)
    7061:	00 00 00 
    7064:	48 8b 45 e8          	mov    -0x18(%rbp),%rax
    7068:	c7 80 30 61 00 00 00 	movl   $0x0,0x6130(%rax)
    706f:	00 00 00 
    7072:	48 8b 45 e8          	mov    -0x18(%rbp),%rax
    7076:	c7 80 3c 61 00 00 00 	movl   $0x0,0x613c(%rax)
    707d:	00 00 00 
    7080:	48 8b 45 e8          	mov    -0x18(%rbp),%rax
    7084:	48 05 a8 60 00 00    	add    $0x60a8,%rax
    708a:	66 c7 00 0d 0a       	movw   $0xa0d,(%rax)
    708f:	c6 40 02 00          	movb   $0x0,0x2(%rax)
    7093:	bf 01 00 00 00       	mov    $0x1,%edi
    7098:	e8 13 bd ff ff       	callq  2db0 <sleep@plt>
    709d:	8b 45 f8             	mov    -0x8(%rbp),%eax
    70a0:	c9                   	leaveq 
    70a1:	c3                   	retq   

00000000000070a2 <_Z18privateReconfigureP12phFuncStruct>:
    70a2:	55                   	push   %rbp
    70a3:	48 89 e5             	mov    %rsp,%rbp
    70a6:	48 83 ec 20          	sub    $0x20,%rsp
    70aa:	48 89 7d e8          	mov    %rdi,-0x18(%rbp)
    70ae:	c7 45 fc 00 00 00 00 	movl   $0x0,-0x4(%rbp)
    70b5:	48 8b 45 e8          	mov    -0x18(%rbp),%rax
    70b9:	48 89 c7             	mov    %rax,%rdi
    70bc:	e8 af be ff ff       	callq  2f70 <_Z16phFuncTaAskAbortP12phFuncStruct@plt>
    70c1:	85 c0                	test   %eax,%eax
    70c3:	0f 95 c0             	setne  %al
    70c6:	84 c0                	test   %al,%al
    70c8:	74 07                	je     70d1 <_Z18privateReconfigureP12phFuncStruct+0x2f>
    70ca:	b8 0d 00 00 00       	mov    $0xd,%eax
    70cf:	eb 35                	jmp    7106 <_Z18privateReconfigureP12phFuncStruct+0x64>
    70d1:	48 8b 45 e8          	mov    -0x18(%rbp),%rax
    70d5:	48 89 c7             	mov    %rax,%rdi
    70d8:	e8 53 bd ff ff       	callq  2e30 <_Z13phFuncTaStartP12phFuncStruct@plt>
    70dd:	48 8b 45 e8          	mov    -0x18(%rbp),%rax
    70e1:	48 89 c7             	mov    %rax,%rdi
    70e4:	e8 0a eb ff ff       	callq  5bf3 <_ZL13doReconfigureP12phFuncStruct>
    70e9:	89 45 f8             	mov    %eax,-0x8(%rbp)
    70ec:	83 7d f8 00          	cmpl   $0x0,-0x8(%rbp)
    70f0:	74 05                	je     70f7 <_Z18privateReconfigureP12phFuncStruct+0x55>
    70f2:	8b 45 f8             	mov    -0x8(%rbp),%eax
    70f5:	eb 0f                	jmp    7106 <_Z18privateReconfigureP12phFuncStruct+0x64>
    70f7:	48 8b 45 e8          	mov    -0x18(%rbp),%rax
    70fb:	48 89 c7             	mov    %rax,%rdi
    70fe:	e8 fd bd ff ff       	callq  2f00 <_Z12phFuncTaStopP12phFuncStruct@plt>
    7103:	8b 45 fc             	mov    -0x4(%rbp),%eax
    7106:	c9                   	leaveq 
    7107:	c3                   	retq   

0000000000007108 <_Z17privateStripStartP12phFuncStructi>:
    7108:	55                   	push   %rbp
    7109:	48 89 e5             	mov    %rsp,%rbp
    710c:	48 83 ec 20          	sub    $0x20,%rsp
    7110:	48 89 7d e8          	mov    %rdi,-0x18(%rbp)
    7114:	89 75 e4             	mov    %esi,-0x1c(%rbp)
    7117:	c7 45 fc 00 00 00 00 	movl   $0x0,-0x4(%rbp)
    711e:	83 7d e4 00          	cmpl   $0x0,-0x1c(%rbp)
    7122:	74 09                	je     712d <_Z17privateStripStartP12phFuncStructi+0x25>
    7124:	48 8d 05 6e 43 00 00 	lea    0x436e(%rip),%rax        # b499 <_fini+0x1e8d>
    712b:	eb 07                	jmp    7134 <_Z17privateStripStartP12phFuncStructi+0x2c>
    712d:	48 8d 05 6a 43 00 00 	lea    0x436a(%rip),%rax        # b49e <_fini+0x1e92>
    7134:	48 8b 55 e8          	mov    -0x18(%rbp),%rdx
    7138:	48 8b 7a 10          	mov    0x10(%rdx),%rdi
    713c:	48 89 c1             	mov    %rax,%rcx
    713f:	48 8d 15 62 43 00 00 	lea    0x4362(%rip),%rdx        # b4a8 <_fini+0x1e9c>
    7146:	be 06 00 00 00       	mov    $0x6,%esi
    714b:	b8 00 00 00 00       	mov    $0x0,%eax
    7150:	e8 9b ba ff ff       	callq  2bf0 <_Z16phLogFuncMessageP11phLogStruct11phLogType_tPKcz@plt>
    7155:	48 8b 45 e8          	mov    -0x18(%rbp),%rax
    7159:	48 89 c7             	mov    %rax,%rdi
    715c:	e8 1f bd ff ff       	callq  2e80 <_Z15privateGetStartP12phFuncStruct@plt>
    7161:	89 45 fc             	mov    %eax,-0x4(%rbp)
    7164:	48 8b 45 e8          	mov    -0x18(%rbp),%rax
    7168:	48 8b 40 10          	mov    0x10(%rax),%rax
    716c:	48 8d 15 62 43 00 00 	lea    0x4362(%rip),%rdx        # b4d5 <_fini+0x1ec9>
    7173:	be 06 00 00 00       	mov    $0x6,%esi
    7178:	48 89 c7             	mov    %rax,%rdi
    717b:	b8 00 00 00 00       	mov    $0x0,%eax
    7180:	e8 6b ba ff ff       	callq  2bf0 <_Z16phLogFuncMessageP11phLogStruct11phLogType_tPKcz@plt>
    7185:	8b 45 fc             	mov    -0x4(%rbp),%eax
    7188:	c9                   	leaveq 
    7189:	c3                   	retq   

000000000000718a <_Z16privateStripDoneP12phFuncStructi>:
    718a:	55                   	push   %rbp
    718b:	48 89 e5             	mov    %rsp,%rbp
    718e:	48 83 ec 20          	sub    $0x20,%rsp
    7192:	48 89 7d e8          	mov    %rdi,-0x18(%rbp)
    7196:	89 75 e4             	mov    %esi,-0x1c(%rbp)
    7199:	c7 45 fc 00 00 00 00 	movl   $0x0,-0x4(%rbp)
    71a0:	83 7d e4 00          	cmpl   $0x0,-0x1c(%rbp)
    71a4:	74 09                	je     71af <_Z16privateStripDoneP12phFuncStructi+0x25>
    71a6:	48 8d 05 ec 42 00 00 	lea    0x42ec(%rip),%rax        # b499 <_fini+0x1e8d>
    71ad:	eb 07                	jmp    71b6 <_Z16privateStripDoneP12phFuncStructi+0x2c>
    71af:	48 8d 05 e8 42 00 00 	lea    0x42e8(%rip),%rax        # b49e <_fini+0x1e92>
    71b6:	48 8b 55 e8          	mov    -0x18(%rbp),%rdx
    71ba:	48 8b 7a 10          	mov    0x10(%rdx),%rdi
    71be:	48 89 c1             	mov    %rax,%rcx
    71c1:	48 8d 15 28 43 00 00 	lea    0x4328(%rip),%rdx        # b4f0 <_fini+0x1ee4>
    71c8:	be 06 00 00 00       	mov    $0x6,%esi
    71cd:	b8 00 00 00 00       	mov    $0x0,%eax
    71d2:	e8 19 ba ff ff       	callq  2bf0 <_Z16phLogFuncMessageP11phLogStruct11phLogType_tPKcz@plt>
    71d7:	48 8b 45 e8          	mov    -0x18(%rbp),%rax
    71db:	48 8b 40 10          	mov    0x10(%rax),%rax
    71df:	48 8d 15 36 43 00 00 	lea    0x4336(%rip),%rdx        # b51c <_fini+0x1f10>
    71e6:	be 06 00 00 00       	mov    $0x6,%esi
    71eb:	48 89 c7             	mov    %rax,%rdi
    71ee:	b8 00 00 00 00       	mov    $0x0,%eax
    71f3:	e8 f8 b9 ff ff       	callq  2bf0 <_Z16phLogFuncMessageP11phLogStruct11phLogType_tPKcz@plt>
    71f8:	8b 45 fc             	mov    -0x4(%rbp),%eax
    71fb:	c9                   	leaveq 
    71fc:	c3                   	retq   

00000000000071fd <_Z15privateGetStartP12phFuncStruct>:
    71fd:	55                   	push   %rbp
    71fe:	48 89 e5             	mov    %rsp,%rbp
    7201:	48 81 ec 20 10 00 00 	sub    $0x1020,%rsp
    7208:	48 89 bd e8 ef ff ff 	mov    %rdi,-0x1018(%rbp)
    720f:	48 8b 85 e8 ef ff ff 	mov    -0x1018(%rbp),%rax
    7216:	48 8b 40 10          	mov    0x10(%rax),%rax
    721a:	48 8d 0d 3f 45 00 00 	lea    0x453f(%rip),%rcx        # b760 <_ZZ15privateGetStartP12phFuncStructE12__FUNCTION__>
    7221:	48 8d 15 a4 3f 00 00 	lea    0x3fa4(%rip),%rdx        # b1cc <_fini+0x1bc0>
    7228:	be 06 00 00 00       	mov    $0x6,%esi
    722d:	48 89 c7             	mov    %rax,%rdi
    7230:	b8 00 00 00 00       	mov    $0x0,%eax
    7235:	e8 b6 b9 ff ff       	callq  2bf0 <_Z16phLogFuncMessageP11phLogStruct11phLogType_tPKcz@plt>
    723a:	48 8b 85 e8 ef ff ff 	mov    -0x1018(%rbp),%rax
    7241:	48 89 c7             	mov    %rax,%rdi
    7244:	e8 27 bd ff ff       	callq  2f70 <_Z16phFuncTaAskAbortP12phFuncStruct@plt>
    7249:	85 c0                	test   %eax,%eax
    724b:	0f 95 c0             	setne  %al
    724e:	84 c0                	test   %al,%al
    7250:	74 0a                	je     725c <_Z15privateGetStartP12phFuncStruct+0x5f>
    7252:	b8 0d 00 00 00       	mov    $0xd,%eax
    7257:	e9 27 02 00 00       	jmpq   7483 <_Z15privateGetStartP12phFuncStruct+0x286>
    725c:	48 8b 85 e8 ef ff ff 	mov    -0x1018(%rbp),%rax
    7263:	8b 80 3c 61 00 00    	mov    0x613c(%rax),%eax
    7269:	85 c0                	test   %eax,%eax
    726b:	74 2e                	je     729b <_Z15privateGetStartP12phFuncStruct+0x9e>
    726d:	48 8b 85 e8 ef ff ff 	mov    -0x1018(%rbp),%rax
    7274:	48 8b 40 10          	mov    0x10(%rax),%rax
    7278:	48 8d 15 b7 42 00 00 	lea    0x42b7(%rip),%rdx        # b536 <_fini+0x1f2a>
    727f:	be 06 00 00 00       	mov    $0x6,%esi
    7284:	48 89 c7             	mov    %rax,%rdi
    7287:	b8 00 00 00 00       	mov    $0x0,%eax
    728c:	e8 5f b9 ff ff       	callq  2bf0 <_Z16phLogFuncMessageP11phLogStruct11phLogType_tPKcz@plt>
    7291:	b8 00 00 00 00       	mov    $0x0,%eax
    7296:	e9 e8 01 00 00       	jmpq   7483 <_Z15privateGetStartP12phFuncStruct+0x286>
    729b:	48 8b 85 e8 ef ff ff 	mov    -0x1018(%rbp),%rax
    72a2:	48 89 c7             	mov    %rax,%rdi
    72a5:	e8 86 bb ff ff       	callq  2e30 <_Z13phFuncTaStartP12phFuncStruct@plt>
    72aa:	48 8b 85 e8 ef ff ff 	mov    -0x1018(%rbp),%rax
    72b1:	48 89 c7             	mov    %rax,%rdi
    72b4:	e8 47 ba ff ff       	callq  2d00 <_Z16phFuncTaMarkStepP12phFuncStruct@plt>
    72b9:	48 8b 85 e8 ef ff ff 	mov    -0x1018(%rbp),%rax
    72c0:	48 89 c7             	mov    %rax,%rdi
    72c3:	e8 fe f6 ff ff       	callq  69c6 <_ZL12waitForPartsP12phFuncStruct>
    72c8:	48 8b 85 e8 ef ff ff 	mov    -0x1018(%rbp),%rax
    72cf:	8b 80 90 60 00 00    	mov    0x6090(%rax),%eax
    72d5:	85 c0                	test   %eax,%eax
    72d7:	75 19                	jne    72f2 <_Z15privateGetStartP12phFuncStruct+0xf5>
    72d9:	48 8b 85 e8 ef ff ff 	mov    -0x1018(%rbp),%rax
    72e0:	48 89 c7             	mov    %rax,%rdi
    72e3:	e8 98 bc ff ff       	callq  2f80 <_Z20phFuncTaRemoveToMarkP12phFuncStruct@plt>
    72e8:	b8 0c 00 00 00       	mov    $0xc,%eax
    72ed:	e9 91 01 00 00       	jmpq   7483 <_Z15privateGetStartP12phFuncStruct+0x286>
    72f2:	48 8b 85 e8 ef ff ff 	mov    -0x1018(%rbp),%rax
    72f9:	48 89 c7             	mov    %rax,%rdi
    72fc:	e8 ff bb ff ff       	callq  2f00 <_Z12phFuncTaStopP12phFuncStruct@plt>
    7301:	c7 45 fc 00 00 00 00 	movl   $0x0,-0x4(%rbp)
    7308:	48 8b 85 e8 ef ff ff 	mov    -0x1018(%rbp),%rax
    730f:	c7 80 90 60 00 00 00 	movl   $0x0,0x6090(%rax)
    7316:	00 00 00 
    7319:	c7 45 fc 00 00 00 00 	movl   $0x0,-0x4(%rbp)
    7320:	e9 e3 00 00 00       	jmpq   7408 <_Z15privateGetStartP12phFuncStruct+0x20b>
    7325:	48 8b 85 e8 ef ff ff 	mov    -0x1018(%rbp),%rax
    732c:	8b 55 fc             	mov    -0x4(%rbp),%edx
    732f:	48 63 d2             	movslq %edx,%rdx
    7332:	48 83 c2 14          	add    $0x14,%rdx
    7336:	8b 44 90 04          	mov    0x4(%rax,%rdx,4),%eax
    733a:	83 f8 01             	cmp    $0x1,%eax
    733d:	75 5a                	jne    7399 <_Z15privateGetStartP12phFuncStruct+0x19c>
    733f:	48 8b 85 e8 ef ff ff 	mov    -0x1018(%rbp),%rax
    7346:	8b 55 fc             	mov    -0x4(%rbp),%edx
    7349:	48 63 d2             	movslq %edx,%rdx
    734c:	48 81 c2 24 14 00 00 	add    $0x1424,%rdx
    7353:	8b 04 90             	mov    (%rax,%rdx,4),%eax
    7356:	85 c0                	test   %eax,%eax
    7358:	74 2d                	je     7387 <_Z15privateGetStartP12phFuncStruct+0x18a>
    735a:	48 8b 85 e8 ef ff ff 	mov    -0x1018(%rbp),%rax
    7361:	8b 55 fc             	mov    -0x4(%rbp),%edx
    7364:	48 63 d2             	movslq %edx,%rdx
    7367:	48 81 c2 24 14 00 00 	add    $0x1424,%rdx
    736e:	c7 04 90 00 00 00 00 	movl   $0x0,(%rax,%rdx,4)
    7375:	8b 45 fc             	mov    -0x4(%rbp),%eax
    7378:	48 98                	cltq   
    737a:	c7 84 85 f0 ef ff ff 	movl   $0x0,-0x1010(%rbp,%rax,4)
    7381:	00 00 00 00 
    7385:	eb 7d                	jmp    7404 <_Z15privateGetStartP12phFuncStruct+0x207>
    7387:	8b 45 fc             	mov    -0x4(%rbp),%eax
    738a:	48 98                	cltq   
    738c:	c7 84 85 f0 ef ff ff 	movl   $0x1,-0x1010(%rbp,%rax,4)
    7393:	01 00 00 00 
    7397:	eb 6b                	jmp    7404 <_Z15privateGetStartP12phFuncStruct+0x207>
    7399:	48 8b 85 e8 ef ff ff 	mov    -0x1018(%rbp),%rax
    73a0:	8b 55 fc             	mov    -0x4(%rbp),%edx
    73a3:	48 63 d2             	movslq %edx,%rdx
    73a6:	48 81 c2 24 14 00 00 	add    $0x1424,%rdx
    73ad:	8b 04 90             	mov    (%rax,%rdx,4),%eax
    73b0:	85 c0                	test   %eax,%eax
    73b2:	74 40                	je     73f4 <_Z15privateGetStartP12phFuncStruct+0x1f7>
    73b4:	48 8b 85 e8 ef ff ff 	mov    -0x1018(%rbp),%rax
    73bb:	8b 55 fc             	mov    -0x4(%rbp),%edx
    73be:	48 63 d2             	movslq %edx,%rdx
    73c1:	48 81 c2 0a 04 00 00 	add    $0x40a,%rdx
    73c8:	48 8b 54 d0 08       	mov    0x8(%rax,%rdx,8),%rdx
    73cd:	48 8b 85 e8 ef ff ff 	mov    -0x1018(%rbp),%rax
    73d4:	48 8b 40 10          	mov    0x10(%rax),%rax
    73d8:	48 89 d1             	mov    %rdx,%rcx
    73db:	48 8d 15 66 41 00 00 	lea    0x4166(%rip),%rdx        # b548 <_fini+0x1f3c>
    73e2:	be 01 00 00 00       	mov    $0x1,%esi
    73e7:	48 89 c7             	mov    %rax,%rdi
    73ea:	b8 00 00 00 00       	mov    $0x0,%eax
    73ef:	e8 fc b7 ff ff       	callq  2bf0 <_Z16phLogFuncMessageP11phLogStruct11phLogType_tPKcz@plt>
    73f4:	8b 45 fc             	mov    -0x4(%rbp),%eax
    73f7:	48 98                	cltq   
    73f9:	c7 84 85 f0 ef ff ff 	movl   $0x2,-0x1010(%rbp,%rax,4)
    7400:	02 00 00 00 
    7404:	83 45 fc 01          	addl   $0x1,-0x4(%rbp)
    7408:	48 8b 85 e8 ef ff ff 	mov    -0x1018(%rbp),%rax
    740f:	8b 40 50             	mov    0x50(%rax),%eax
    7412:	3b 45 fc             	cmp    -0x4(%rbp),%eax
    7415:	0f 8f 0a ff ff ff    	jg     7325 <_Z15privateGetStartP12phFuncStruct+0x128>
    741b:	48 8b 85 e8 ef ff ff 	mov    -0x1018(%rbp),%rax
    7422:	c7 80 3c 61 00 00 01 	movl   $0x1,0x613c(%rax)
    7429:	00 00 00 
    742c:	48 8b 85 e8 ef ff ff 	mov    -0x1018(%rbp),%rax
    7433:	8b 50 50             	mov    0x50(%rax),%edx
    7436:	48 8b 85 e8 ef ff ff 	mov    -0x1018(%rbp),%rax
    743d:	48 8b 40 28          	mov    0x28(%rax),%rax
    7441:	48 8d 8d f0 ef ff ff 	lea    -0x1010(%rbp),%rcx
    7448:	48 89 ce             	mov    %rcx,%rsi
    744b:	48 89 c7             	mov    %rax,%rdi
    744e:	e8 bd b9 ff ff       	callq  2e10 <_Z20phEstateASetSiteInfoP14phEstateStructP19phEstateSiteUsage_ti@plt>
    7453:	48 8b 85 e8 ef ff ff 	mov    -0x1018(%rbp),%rax
    745a:	48 8b 40 10          	mov    0x10(%rax),%rax
    745e:	48 8d 0d fb 42 00 00 	lea    0x42fb(%rip),%rcx        # b760 <_ZZ15privateGetStartP12phFuncStructE12__FUNCTION__>
    7465:	48 8d 15 d1 3e 00 00 	lea    0x3ed1(%rip),%rdx        # b33d <_fini+0x1d31>
    746c:	be 06 00 00 00       	mov    $0x6,%esi
    7471:	48 89 c7             	mov    %rax,%rdi
    7474:	b8 00 00 00 00       	mov    $0x0,%eax
    7479:	e8 72 b7 ff ff       	callq  2bf0 <_Z16phLogFuncMessageP11phLogStruct11phLogType_tPKcz@plt>
    747e:	b8 00 00 00 00       	mov    $0x0,%eax
    7483:	c9                   	leaveq 
    7484:	c3                   	retq   

0000000000007485 <_Z16privateBinDeviceP12phFuncStructPl>:
    7485:	55                   	push   %rbp
    7486:	48 89 e5             	mov    %rsp,%rbp
    7489:	48 81 ec 30 10 00 00 	sub    $0x1030,%rsp
    7490:	48 89 bd d8 ef ff ff 	mov    %rdi,-0x1028(%rbp)
    7497:	48 89 b5 d0 ef ff ff 	mov    %rsi,-0x1030(%rbp)
    749e:	48 8b 85 d8 ef ff ff 	mov    -0x1028(%rbp),%rax
    74a5:	48 89 c7             	mov    %rax,%rdi
    74a8:	e8 c3 ba ff ff       	callq  2f70 <_Z16phFuncTaAskAbortP12phFuncStruct@plt>
    74ad:	85 c0                	test   %eax,%eax
    74af:	0f 95 c0             	setne  %al
    74b2:	84 c0                	test   %al,%al
    74b4:	74 0a                	je     74c0 <_Z16privateBinDeviceP12phFuncStructPl+0x3b>
    74b6:	b8 0d 00 00 00       	mov    $0xd,%eax
    74bb:	e9 68 01 00 00       	jmpq   7628 <_Z16privateBinDeviceP12phFuncStructPl+0x1a3>
    74c0:	48 8b 85 d8 ef ff ff 	mov    -0x1028(%rbp),%rax
    74c7:	48 8b 40 28          	mov    0x28(%rax),%rax
    74cb:	48 8d 55 ec          	lea    -0x14(%rbp),%rdx
    74cf:	48 8d 4d f0          	lea    -0x10(%rbp),%rcx
    74d3:	48 89 ce             	mov    %rcx,%rsi
    74d6:	48 89 c7             	mov    %rax,%rdi
    74d9:	e8 f2 b9 ff ff       	callq  2ed0 <_Z20phEstateAGetSiteInfoP14phEstateStructPP19phEstateSiteUsage_tPi@plt>
    74de:	48 8b 85 d8 ef ff ff 	mov    -0x1028(%rbp),%rax
    74e5:	48 89 c7             	mov    %rax,%rdi
    74e8:	e8 43 b9 ff ff       	callq  2e30 <_Z13phFuncTaStartP12phFuncStruct@plt>
    74ed:	48 8b 75 f0          	mov    -0x10(%rbp),%rsi
    74f1:	48 8b 95 d0 ef ff ff 	mov    -0x1030(%rbp),%rdx
    74f8:	48 8b 85 d8 ef ff ff 	mov    -0x1028(%rbp),%rax
    74ff:	48 89 d1             	mov    %rdx,%rcx
    7502:	ba 00 00 00 00       	mov    $0x0,%edx
    7507:	48 89 c7             	mov    %rax,%rdi
    750a:	e8 92 f6 ff ff       	callq  6ba1 <_ZL13binAndReprobeP12phFuncStructP19phEstateSiteUsage_tPlS3_>
    750f:	89 45 f8             	mov    %eax,-0x8(%rbp)
    7512:	83 7d f8 00          	cmpl   $0x0,-0x8(%rbp)
    7516:	74 08                	je     7520 <_Z16privateBinDeviceP12phFuncStructPl+0x9b>
    7518:	8b 45 f8             	mov    -0x8(%rbp),%eax
    751b:	e9 08 01 00 00       	jmpq   7628 <_Z16privateBinDeviceP12phFuncStructPl+0x1a3>
    7520:	48 8b 85 d8 ef ff ff 	mov    -0x1028(%rbp),%rax
    7527:	48 89 c7             	mov    %rax,%rdi
    752a:	e8 d1 b9 ff ff       	callq  2f00 <_Z12phFuncTaStopP12phFuncStruct@plt>
    752f:	c7 45 fc 00 00 00 00 	movl   $0x0,-0x4(%rbp)
    7536:	e9 9d 00 00 00       	jmpq   75d8 <_Z16privateBinDeviceP12phFuncStructPl+0x153>
    753b:	48 8b 85 d8 ef ff ff 	mov    -0x1028(%rbp),%rax
    7542:	8b 55 fc             	mov    -0x4(%rbp),%edx
    7545:	48 63 d2             	movslq %edx,%rdx
    7548:	48 83 c2 14          	add    $0x14,%rdx
    754c:	8b 44 90 04          	mov    0x4(%rax,%rdx,4),%eax
    7550:	85 c0                	test   %eax,%eax
    7552:	74 61                	je     75b5 <_Z16privateBinDeviceP12phFuncStructPl+0x130>
    7554:	48 8b 45 f0          	mov    -0x10(%rbp),%rax
    7558:	8b 55 fc             	mov    -0x4(%rbp),%edx
    755b:	48 63 d2             	movslq %edx,%rdx
    755e:	48 c1 e2 02          	shl    $0x2,%rdx
    7562:	48 01 d0             	add    %rdx,%rax
    7565:	8b 00                	mov    (%rax),%eax
    7567:	85 c0                	test   %eax,%eax
    7569:	74 18                	je     7583 <_Z16privateBinDeviceP12phFuncStructPl+0xfe>
    756b:	48 8b 45 f0          	mov    -0x10(%rbp),%rax
    756f:	8b 55 fc             	mov    -0x4(%rbp),%edx
    7572:	48 63 d2             	movslq %edx,%rdx
    7575:	48 c1 e2 02          	shl    $0x2,%rdx
    7579:	48 01 d0             	add    %rdx,%rax
    757c:	8b 00                	mov    (%rax),%eax
    757e:	83 f8 03             	cmp    $0x3,%eax
    7581:	75 32                	jne    75b5 <_Z16privateBinDeviceP12phFuncStructPl+0x130>
    7583:	48 8b 45 f0          	mov    -0x10(%rbp),%rax
    7587:	8b 55 fc             	mov    -0x4(%rbp),%edx
    758a:	48 63 d2             	movslq %edx,%rdx
    758d:	48 c1 e2 02          	shl    $0x2,%rdx
    7591:	48 01 d0             	add    %rdx,%rax
    7594:	8b 00                	mov    (%rax),%eax
    7596:	85 c0                	test   %eax,%eax
    7598:	75 07                	jne    75a1 <_Z16privateBinDeviceP12phFuncStructPl+0x11c>
    759a:	b8 01 00 00 00       	mov    $0x1,%eax
    759f:	eb 05                	jmp    75a6 <_Z16privateBinDeviceP12phFuncStructPl+0x121>
    75a1:	b8 02 00 00 00       	mov    $0x2,%eax
    75a6:	8b 55 fc             	mov    -0x4(%rbp),%edx
    75a9:	48 63 d2             	movslq %edx,%rdx
    75ac:	89 84 95 e0 ef ff ff 	mov    %eax,-0x1020(%rbp,%rdx,4)
    75b3:	eb 1f                	jmp    75d4 <_Z16privateBinDeviceP12phFuncStructPl+0x14f>
    75b5:	48 8b 45 f0          	mov    -0x10(%rbp),%rax
    75b9:	8b 55 fc             	mov    -0x4(%rbp),%edx
    75bc:	48 63 d2             	movslq %edx,%rdx
    75bf:	48 c1 e2 02          	shl    $0x2,%rdx
    75c3:	48 01 d0             	add    %rdx,%rax
    75c6:	8b 10                	mov    (%rax),%edx
    75c8:	8b 45 fc             	mov    -0x4(%rbp),%eax
    75cb:	48 98                	cltq   
    75cd:	89 94 85 e0 ef ff ff 	mov    %edx,-0x1020(%rbp,%rax,4)
    75d4:	83 45 fc 01          	addl   $0x1,-0x4(%rbp)
    75d8:	48 8b 85 d8 ef ff ff 	mov    -0x1028(%rbp),%rax
    75df:	8b 40 50             	mov    0x50(%rax),%eax
    75e2:	3b 45 fc             	cmp    -0x4(%rbp),%eax
    75e5:	0f 8f 50 ff ff ff    	jg     753b <_Z16privateBinDeviceP12phFuncStructPl+0xb6>
    75eb:	48 8b 85 d8 ef ff ff 	mov    -0x1028(%rbp),%rax
    75f2:	c7 80 3c 61 00 00 00 	movl   $0x0,0x613c(%rax)
    75f9:	00 00 00 
    75fc:	48 8b 85 d8 ef ff ff 	mov    -0x1028(%rbp),%rax
    7603:	8b 50 50             	mov    0x50(%rax),%edx
    7606:	48 8b 85 d8 ef ff ff 	mov    -0x1028(%rbp),%rax
    760d:	48 8b 40 28          	mov    0x28(%rax),%rax
    7611:	48 8d 8d e0 ef ff ff 	lea    -0x1020(%rbp),%rcx
    7618:	48 89 ce             	mov    %rcx,%rsi
    761b:	48 89 c7             	mov    %rax,%rdi
    761e:	e8 ed b7 ff ff       	callq  2e10 <_Z20phEstateASetSiteInfoP14phEstateStructP19phEstateSiteUsage_ti@plt>
    7623:	b8 00 00 00 00       	mov    $0x0,%eax
    7628:	c9                   	leaveq 
    7629:	c3                   	retq   

000000000000762a <_Z14privateReprobeP12phFuncStruct>:
    762a:	55                   	push   %rbp
    762b:	48 89 e5             	mov    %rsp,%rbp
    762e:	48 83 ec 10          	sub    $0x10,%rsp
    7632:	48 89 7d f8          	mov    %rdi,-0x8(%rbp)
    7636:	48 8b 45 f8          	mov    -0x8(%rbp),%rax
    763a:	48 8b 40 10          	mov    0x10(%rax),%rax
    763e:	48 8d 0d 2d 3f 00 00 	lea    0x3f2d(%rip),%rcx        # b572 <_fini+0x1f66>
    7645:	48 8d 15 3c 3f 00 00 	lea    0x3f3c(%rip),%rdx        # b588 <_fini+0x1f7c>
    764c:	be 01 00 00 00       	mov    $0x1,%esi
    7651:	48 89 c7             	mov    %rax,%rdi
    7654:	b8 00 00 00 00       	mov    $0x0,%eax
    7659:	e8 92 b5 ff ff       	callq  2bf0 <_Z16phLogFuncMessageP11phLogStruct11phLogType_tPKcz@plt>
    765e:	b8 00 00 00 00       	mov    $0x0,%eax
    7663:	c9                   	leaveq 
    7664:	c3                   	retq   

0000000000007665 <_Z17privateBinReprobeP12phFuncStructPlS1_>:
    7665:	55                   	push   %rbp
    7666:	48 89 e5             	mov    %rsp,%rbp
    7669:	48 83 ec 20          	sub    $0x20,%rsp
    766d:	48 89 7d f8          	mov    %rdi,-0x8(%rbp)
    7671:	48 89 75 f0          	mov    %rsi,-0x10(%rbp)
    7675:	48 89 55 e8          	mov    %rdx,-0x18(%rbp)
    7679:	48 8b 45 f8          	mov    -0x8(%rbp),%rax
    767d:	48 8b 40 10          	mov    0x10(%rax),%rax
    7681:	48 8d 0d 21 3f 00 00 	lea    0x3f21(%rip),%rcx        # b5a9 <_fini+0x1f9d>
    7688:	48 8d 15 f9 3e 00 00 	lea    0x3ef9(%rip),%rdx        # b588 <_fini+0x1f7c>
    768f:	be 01 00 00 00       	mov    $0x1,%esi
    7694:	48 89 c7             	mov    %rax,%rdi
    7697:	b8 00 00 00 00       	mov    $0x0,%eax
    769c:	e8 4f b5 ff ff       	callq  2bf0 <_Z16phLogFuncMessageP11phLogStruct11phLogType_tPKcz@plt>
    76a1:	b8 00 00 00 00       	mov    $0x0,%eax
    76a6:	c9                   	leaveq 
    76a7:	c3                   	retq   

00000000000076a8 <_Z15privateLotStartP12phFuncStructi>:
    76a8:	55                   	push   %rbp
    76a9:	48 89 e5             	mov    %rsp,%rbp
    76ac:	48 83 ec 20          	sub    $0x20,%rsp
    76b0:	48 89 7d e8          	mov    %rdi,-0x18(%rbp)
    76b4:	89 75 e4             	mov    %esi,-0x1c(%rbp)
    76b7:	c7 45 fc 00 00 00 00 	movl   $0x0,-0x4(%rbp)
    76be:	83 7d e4 00          	cmpl   $0x0,-0x1c(%rbp)
    76c2:	74 09                	je     76cd <_Z15privateLotStartP12phFuncStructi+0x25>
    76c4:	48 8d 05 ce 3d 00 00 	lea    0x3dce(%rip),%rax        # b499 <_fini+0x1e8d>
    76cb:	eb 07                	jmp    76d4 <_Z15privateLotStartP12phFuncStructi+0x2c>
    76cd:	48 8d 05 ca 3d 00 00 	lea    0x3dca(%rip),%rax        # b49e <_fini+0x1e92>
    76d4:	48 8b 55 e8          	mov    -0x18(%rbp),%rdx
    76d8:	48 8b 7a 10          	mov    0x10(%rdx),%rdi
    76dc:	48 89 c1             	mov    %rax,%rcx
    76df:	48 8d 15 d5 3e 00 00 	lea    0x3ed5(%rip),%rdx        # b5bb <_fini+0x1faf>
    76e6:	be 06 00 00 00       	mov    $0x6,%esi
    76eb:	b8 00 00 00 00       	mov    $0x0,%eax
    76f0:	e8 fb b4 ff ff       	callq  2bf0 <_Z16phLogFuncMessageP11phLogStruct11phLogType_tPKcz@plt>
    76f5:	8b 55 fc             	mov    -0x4(%rbp),%edx
    76f8:	48 8b 45 e8          	mov    -0x18(%rbp),%rax
    76fc:	48 8b 40 10          	mov    0x10(%rax),%rax
    7700:	89 d1                	mov    %edx,%ecx
    7702:	48 8d 15 cf 3e 00 00 	lea    0x3ecf(%rip),%rdx        # b5d8 <_fini+0x1fcc>
    7709:	be 06 00 00 00       	mov    $0x6,%esi
    770e:	48 89 c7             	mov    %rax,%rdi
    7711:	b8 00 00 00 00       	mov    $0x0,%eax
    7716:	e8 d5 b4 ff ff       	callq  2bf0 <_Z16phLogFuncMessageP11phLogStruct11phLogType_tPKcz@plt>
    771b:	8b 45 fc             	mov    -0x4(%rbp),%eax
    771e:	c9                   	leaveq 
    771f:	c3                   	retq   

0000000000007720 <_Z14privateLotDoneP12phFuncStructi>:
    7720:	55                   	push   %rbp
    7721:	48 89 e5             	mov    %rsp,%rbp
    7724:	48 83 ec 20          	sub    $0x20,%rsp
    7728:	48 89 7d e8          	mov    %rdi,-0x18(%rbp)
    772c:	89 75 e4             	mov    %esi,-0x1c(%rbp)
    772f:	c7 45 fc 00 00 00 00 	movl   $0x0,-0x4(%rbp)
    7736:	8b 55 fc             	mov    -0x4(%rbp),%edx
    7739:	48 8b 45 e8          	mov    -0x18(%rbp),%rax
    773d:	48 8b 40 10          	mov    0x10(%rax),%rax
    7741:	89 d1                	mov    %edx,%ecx
    7743:	48 8d 15 b6 3e 00 00 	lea    0x3eb6(%rip),%rdx        # b600 <_fini+0x1ff4>
    774a:	be 06 00 00 00       	mov    $0x6,%esi
    774f:	48 89 c7             	mov    %rax,%rdi
    7752:	b8 00 00 00 00       	mov    $0x0,%eax
    7757:	e8 94 b4 ff ff       	callq  2bf0 <_Z16phLogFuncMessageP11phLogStruct11phLogType_tPKcz@plt>
    775c:	8b 45 fc             	mov    -0x4(%rbp),%eax
    775f:	c9                   	leaveq 
    7760:	c3                   	retq   

0000000000007761 <_Z16privateSetStatusP12phFuncStructPKcS2_>:
    7761:	55                   	push   %rbp
    7762:	48 89 e5             	mov    %rsp,%rbp
    7765:	48 83 ec 30          	sub    $0x30,%rsp
    7769:	48 89 7d e8          	mov    %rdi,-0x18(%rbp)
    776d:	48 89 75 e0          	mov    %rsi,-0x20(%rbp)
    7771:	48 89 55 d8          	mov    %rdx,-0x28(%rbp)
    7775:	c7 45 fc 00 00 00 00 	movl   $0x0,-0x4(%rbp)
    777c:	48 8b 45 e8          	mov    -0x18(%rbp),%rax
    7780:	48 89 c7             	mov    %rax,%rdi
    7783:	e8 e8 b7 ff ff       	callq  2f70 <_Z16phFuncTaAskAbortP12phFuncStruct@plt>
    7788:	85 c0                	test   %eax,%eax
    778a:	0f 95 c0             	setne  %al
    778d:	84 c0                	test   %al,%al
    778f:	74 07                	je     7798 <_Z16privateSetStatusP12phFuncStructPKcS2_+0x37>
    7791:	b8 0d 00 00 00       	mov    $0xd,%eax
    7796:	eb 32                	jmp    77ca <_Z16privateSetStatusP12phFuncStructPKcS2_+0x69>
    7798:	48 8b 45 e8          	mov    -0x18(%rbp),%rax
    779c:	48 8b 40 10          	mov    0x10(%rax),%rax
    77a0:	48 8b 4d d8          	mov    -0x28(%rbp),%rcx
    77a4:	48 8b 55 e0          	mov    -0x20(%rbp),%rdx
    77a8:	49 89 c8             	mov    %rcx,%r8
    77ab:	48 89 d1             	mov    %rdx,%rcx
    77ae:	48 8d 15 73 3e 00 00 	lea    0x3e73(%rip),%rdx        # b628 <_fini+0x201c>
    77b5:	be 03 00 00 00       	mov    $0x3,%esi
    77ba:	48 89 c7             	mov    %rax,%rdi
    77bd:	b8 00 00 00 00       	mov    $0x0,%eax
    77c2:	e8 29 b4 ff ff       	callq  2bf0 <_Z16phLogFuncMessageP11phLogStruct11phLogType_tPKcz@plt>
    77c7:	8b 45 fc             	mov    -0x4(%rbp),%eax
    77ca:	c9                   	leaveq 
    77cb:	c3                   	retq   

00000000000077cc <_ZL17getAllCoordinatesPc>:
    77cc:	55                   	push   %rbp
    77cd:	48 89 e5             	mov    %rsp,%rbp
    77d0:	48 83 ec 20          	sub    $0x20,%rsp
    77d4:	48 89 7d e8          	mov    %rdi,-0x18(%rbp)
    77d8:	c7 45 fc 00 00 00 00 	movl   $0x0,-0x4(%rbp)
    77df:	c7 45 f8 00 00 00 00 	movl   $0x0,-0x8(%rbp)
    77e6:	eb 3e                	jmp    7826 <_ZL17getAllCoordinatesPc+0x5a>
    77e8:	8b 45 fc             	mov    -0x4(%rbp),%eax
    77eb:	48 98                	cltq   
    77ed:	48 c1 e0 06          	shl    $0x6,%rax
    77f1:	48 89 c2             	mov    %rax,%rdx
    77f4:	48 8d 05 25 77 20 00 	lea    0x207725(%rip),%rax        # 20ef20 <_ZL15handlerSiteName>
    77fb:	48 01 c2             	add    %rax,%rdx
    77fe:	8b 45 f8             	mov    -0x8(%rbp),%eax
    7801:	48 63 c8             	movslq %eax,%rcx
    7804:	48 8b 45 e8          	mov    -0x18(%rbp),%rax
    7808:	48 01 c8             	add    %rcx,%rax
    780b:	48 8d 35 47 3e 00 00 	lea    0x3e47(%rip),%rsi        # b659 <_fini+0x204d>
    7812:	48 89 c7             	mov    %rax,%rdi
    7815:	b8 00 00 00 00       	mov    $0x0,%eax
    781a:	e8 71 b5 ff ff       	callq  2d90 <sprintf@plt>
    781f:	01 45 f8             	add    %eax,-0x8(%rbp)
    7822:	83 45 fc 01          	addl   $0x1,-0x4(%rbp)
    7826:	83 7d fc 17          	cmpl   $0x17,-0x4(%rbp)
    782a:	7e bc                	jle    77e8 <_ZL17getAllCoordinatesPc+0x1c>
    782c:	90                   	nop
    782d:	c9                   	leaveq 
    782e:	c3                   	retq   

000000000000782f <_Z16privateGetStatusP12phFuncStructPKcS2_PPc>:
    782f:	55                   	push   %rbp
    7830:	48 89 e5             	mov    %rsp,%rbp
    7833:	48 83 ec 50          	sub    $0x50,%rsp
    7837:	48 89 7d c8          	mov    %rdi,-0x38(%rbp)
    783b:	48 89 75 c0          	mov    %rsi,-0x40(%rbp)
    783f:	48 89 55 b8          	mov    %rdx,-0x48(%rbp)
    7843:	48 89 4d b0          	mov    %rcx,-0x50(%rbp)
    7847:	48 8b 45 c0          	mov    -0x40(%rbp),%rax
    784b:	48 89 45 e8          	mov    %rax,-0x18(%rbp)
    784f:	48 8b 45 b8          	mov    -0x48(%rbp),%rax
    7853:	48 89 45 e0          	mov    %rax,-0x20(%rbp)
    7857:	ba 00 20 00 00       	mov    $0x2000,%edx
    785c:	be 00 00 00 00       	mov    $0x0,%esi
    7861:	48 8d 3d b8 76 21 00 	lea    0x2176b8(%rip),%rdi        # 21ef20 <_ZZ16privateGetStatusP12phFuncStructPKcS2_PPcE13handlerAnswer>
    7868:	e8 a3 b3 ff ff       	callq  2c10 <memset@plt>
    786d:	c7 45 dc 00 00 00 00 	movl   $0x0,-0x24(%rbp)
    7874:	48 8b 45 b0          	mov    -0x50(%rbp),%rax
    7878:	48 8d 15 a1 76 21 00 	lea    0x2176a1(%rip),%rdx        # 21ef20 <_ZZ16privateGetStatusP12phFuncStructPKcS2_PPcE13handlerAnswer>
    787f:	48 89 10             	mov    %rdx,(%rax)
    7882:	48 8b 45 c8          	mov    -0x38(%rbp),%rax
    7886:	48 89 c7             	mov    %rax,%rdi
    7889:	e8 e2 b6 ff ff       	callq  2f70 <_Z16phFuncTaAskAbortP12phFuncStruct@plt>
    788e:	85 c0                	test   %eax,%eax
    7890:	0f 95 c0             	setne  %al
    7893:	84 c0                	test   %al,%al
    7895:	74 0a                	je     78a1 <_Z16privateGetStatusP12phFuncStructPKcS2_PPc+0x72>
    7897:	b8 0d 00 00 00       	mov    $0xd,%eax
    789c:	e9 7c 02 00 00       	jmpq   7b1d <_Z16privateGetStatusP12phFuncStructPKcS2_PPc+0x2ee>
    78a1:	48 8b 45 c8          	mov    -0x38(%rbp),%rax
    78a5:	48 8b 40 10          	mov    0x10(%rax),%rax
    78a9:	48 8b 4d e0          	mov    -0x20(%rbp),%rcx
    78ad:	48 8b 55 e8          	mov    -0x18(%rbp),%rdx
    78b1:	49 89 c8             	mov    %rcx,%r8
    78b4:	48 89 d1             	mov    %rdx,%rcx
    78b7:	48 8d 15 a2 3d 00 00 	lea    0x3da2(%rip),%rdx        # b660 <_fini+0x2054>
    78be:	be 03 00 00 00       	mov    $0x3,%esi
    78c3:	48 89 c7             	mov    %rax,%rdi
    78c6:	b8 00 00 00 00       	mov    $0x0,%eax
    78cb:	e8 20 b3 ff ff       	callq  2bf0 <_Z16phLogFuncMessageP11phLogStruct11phLogType_tPKcz@plt>
    78d0:	48 8b 45 e8          	mov    -0x18(%rbp),%rax
    78d4:	48 8d 35 b6 3d 00 00 	lea    0x3db6(%rip),%rsi        # b691 <_fini+0x2085>
    78db:	48 89 c7             	mov    %rax,%rdi
    78de:	e8 8d b3 ff ff       	callq  2c70 <strcasecmp@plt>
    78e3:	85 c0                	test   %eax,%eax
    78e5:	75 1e                	jne    7905 <_Z16privateGetStatusP12phFuncStructPKcS2_PPc+0xd6>
    78e7:	48 8b 45 c8          	mov    -0x38(%rbp),%rax
    78eb:	48 05 ac 60 00 00    	add    $0x60ac,%rax
    78f1:	48 89 c6             	mov    %rax,%rsi
    78f4:	48 8d 3d 25 76 21 00 	lea    0x217625(%rip),%rdi        # 21ef20 <_ZZ16privateGetStatusP12phFuncStructPKcS2_PPcE13handlerAnswer>
    78fb:	e8 20 b6 ff ff       	callq  2f20 <strcpy@plt>
    7900:	e9 db 01 00 00       	jmpq   7ae0 <_Z16privateGetStatusP12phFuncStructPKcS2_PPc+0x2b1>
    7905:	48 8b 45 e8          	mov    -0x18(%rbp),%rax
    7909:	48 8d 35 89 3d 00 00 	lea    0x3d89(%rip),%rsi        # b699 <_fini+0x208d>
    7910:	48 89 c7             	mov    %rax,%rdi
    7913:	e8 58 b3 ff ff       	callq  2c70 <strcasecmp@plt>
    7918:	85 c0                	test   %eax,%eax
    791a:	0f 85 8d 00 00 00    	jne    79ad <_Z16privateGetStatusP12phFuncStructPKcS2_PPc+0x17e>
    7920:	48 83 7d e0 00       	cmpq   $0x0,-0x20(%rbp)
    7925:	74 0b                	je     7932 <_Z16privateGetStatusP12phFuncStructPKcS2_PPc+0x103>
    7927:	48 8b 45 e0          	mov    -0x20(%rbp),%rax
    792b:	0f b6 00             	movzbl (%rax),%eax
    792e:	84 c0                	test   %al,%al
    7930:	75 11                	jne    7943 <_Z16privateGetStatusP12phFuncStructPKcS2_PPc+0x114>
    7932:	48 8d 3d e7 75 21 00 	lea    0x2175e7(%rip),%rdi        # 21ef20 <_ZZ16privateGetStatusP12phFuncStructPKcS2_PPcE13handlerAnswer>
    7939:	e8 8e fe ff ff       	callq  77cc <_ZL17getAllCoordinatesPc>
    793e:	e9 9d 01 00 00       	jmpq   7ae0 <_Z16privateGetStatusP12phFuncStructPKcS2_PPc+0x2b1>
    7943:	48 8b 45 e0          	mov    -0x20(%rbp),%rax
    7947:	48 89 c7             	mov    %rax,%rdi
    794a:	e8 01 b5 ff ff       	callq  2e50 <atoi@plt>
    794f:	89 45 fc             	mov    %eax,-0x4(%rbp)
    7952:	83 7d fc 00          	cmpl   $0x0,-0x4(%rbp)
    7956:	75 28                	jne    7980 <_Z16privateGetStatusP12phFuncStructPKcS2_PPc+0x151>
    7958:	48 8b 45 c8          	mov    -0x38(%rbp),%rax
    795c:	48 8b 40 10          	mov    0x10(%rax),%rax
    7960:	48 8d 15 41 3d 00 00 	lea    0x3d41(%rip),%rdx        # b6a8 <_fini+0x209c>
    7967:	be 02 00 00 00       	mov    $0x2,%esi
    796c:	48 89 c7             	mov    %rax,%rdi
    796f:	b8 00 00 00 00       	mov    $0x0,%eax
    7974:	e8 77 b2 ff ff       	callq  2bf0 <_Z16phLogFuncMessageP11phLogStruct11phLogType_tPKcz@plt>
    7979:	c7 45 fc 01 00 00 00 	movl   $0x1,-0x4(%rbp)
    7980:	8b 45 fc             	mov    -0x4(%rbp),%eax
    7983:	83 e8 01             	sub    $0x1,%eax
    7986:	48 98                	cltq   
    7988:	48 c1 e0 06          	shl    $0x6,%rax
    798c:	48 89 c2             	mov    %rax,%rdx
    798f:	48 8d 05 8a 75 20 00 	lea    0x20758a(%rip),%rax        # 20ef20 <_ZL15handlerSiteName>
    7996:	48 01 d0             	add    %rdx,%rax
    7999:	48 89 c6             	mov    %rax,%rsi
    799c:	48 8d 3d 7d 75 21 00 	lea    0x21757d(%rip),%rdi        # 21ef20 <_ZZ16privateGetStatusP12phFuncStructPKcS2_PPcE13handlerAnswer>
    79a3:	e8 78 b5 ff ff       	callq  2f20 <strcpy@plt>
    79a8:	e9 33 01 00 00       	jmpq   7ae0 <_Z16privateGetStatusP12phFuncStructPKcS2_PPc+0x2b1>
    79ad:	48 8b 45 e8          	mov    -0x18(%rbp),%rax
    79b1:	48 8d 35 23 3d 00 00 	lea    0x3d23(%rip),%rsi        # b6db <_fini+0x20cf>
    79b8:	48 89 c7             	mov    %rax,%rdi
    79bb:	e8 b0 b2 ff ff       	callq  2c70 <strcasecmp@plt>
    79c0:	85 c0                	test   %eax,%eax
    79c2:	0f 85 85 00 00 00    	jne    7a4d <_Z16privateGetStatusP12phFuncStructPKcS2_PPc+0x21e>
    79c8:	48 83 7d e0 00       	cmpq   $0x0,-0x20(%rbp)
    79cd:	74 79                	je     7a48 <_Z16privateGetStatusP12phFuncStructPKcS2_PPc+0x219>
    79cf:	48 8b 45 e0          	mov    -0x20(%rbp),%rax
    79d3:	0f b6 00             	movzbl (%rax),%eax
    79d6:	84 c0                	test   %al,%al
    79d8:	74 6e                	je     7a48 <_Z16privateGetStatusP12phFuncStructPKcS2_PPc+0x219>
    79da:	48 8b 45 e0          	mov    -0x20(%rbp),%rax
    79de:	48 89 c7             	mov    %rax,%rdi
    79e1:	e8 6a b4 ff ff       	callq  2e50 <atoi@plt>
    79e6:	89 45 f8             	mov    %eax,-0x8(%rbp)
    79e9:	83 7d f8 00          	cmpl   $0x0,-0x8(%rbp)
    79ed:	75 28                	jne    7a17 <_Z16privateGetStatusP12phFuncStructPKcS2_PPc+0x1e8>
    79ef:	48 8b 45 c8          	mov    -0x38(%rbp),%rax
    79f3:	48 8b 40 10          	mov    0x10(%rax),%rax
    79f7:	48 8d 15 aa 3c 00 00 	lea    0x3caa(%rip),%rdx        # b6a8 <_fini+0x209c>
    79fe:	be 02 00 00 00       	mov    $0x2,%esi
    7a03:	48 89 c7             	mov    %rax,%rdi
    7a06:	b8 00 00 00 00       	mov    $0x0,%eax
    7a0b:	e8 e0 b1 ff ff       	callq  2bf0 <_Z16phLogFuncMessageP11phLogStruct11phLogType_tPKcz@plt>
    7a10:	c7 45 f8 01 00 00 00 	movl   $0x1,-0x8(%rbp)
    7a17:	8b 45 f8             	mov    -0x8(%rbp),%eax
    7a1a:	83 e8 01             	sub    $0x1,%eax
    7a1d:	48 98                	cltq   
    7a1f:	48 c1 e0 06          	shl    $0x6,%rax
    7a23:	48 89 c2             	mov    %rax,%rdx
    7a26:	48 8d 05 f3 74 20 00 	lea    0x2074f3(%rip),%rax        # 20ef20 <_ZL15handlerSiteName>
    7a2d:	48 01 d0             	add    %rdx,%rax
    7a30:	48 83 c0 02          	add    $0x2,%rax
    7a34:	ba 01 00 00 00       	mov    $0x1,%edx
    7a39:	48 89 c6             	mov    %rax,%rsi
    7a3c:	48 8d 3d dd 74 21 00 	lea    0x2174dd(%rip),%rdi        # 21ef20 <_ZZ16privateGetStatusP12phFuncStructPKcS2_PPcE13handlerAnswer>
    7a43:	e8 08 b5 ff ff       	callq  2f50 <strncpy@plt>
    7a48:	e9 93 00 00 00       	jmpq   7ae0 <_Z16privateGetStatusP12phFuncStructPKcS2_PPc+0x2b1>
    7a4d:	48 8b 45 e8          	mov    -0x18(%rbp),%rax
    7a51:	48 8d 35 94 3c 00 00 	lea    0x3c94(%rip),%rsi        # b6ec <_fini+0x20e0>
    7a58:	48 89 c7             	mov    %rax,%rdi
    7a5b:	e8 10 b2 ff ff       	callq  2c70 <strcasecmp@plt>
    7a60:	85 c0                	test   %eax,%eax
    7a62:	75 7c                	jne    7ae0 <_Z16privateGetStatusP12phFuncStructPKcS2_PPc+0x2b1>
    7a64:	48 83 7d e0 00       	cmpq   $0x0,-0x20(%rbp)
    7a69:	74 75                	je     7ae0 <_Z16privateGetStatusP12phFuncStructPKcS2_PPc+0x2b1>
    7a6b:	48 8b 45 e0          	mov    -0x20(%rbp),%rax
    7a6f:	0f b6 00             	movzbl (%rax),%eax
    7a72:	84 c0                	test   %al,%al
    7a74:	74 6a                	je     7ae0 <_Z16privateGetStatusP12phFuncStructPKcS2_PPc+0x2b1>
    7a76:	48 8b 45 e0          	mov    -0x20(%rbp),%rax
    7a7a:	48 89 c7             	mov    %rax,%rdi
    7a7d:	e8 ce b3 ff ff       	callq  2e50 <atoi@plt>
    7a82:	89 45 f4             	mov    %eax,-0xc(%rbp)
    7a85:	83 7d f4 00          	cmpl   $0x0,-0xc(%rbp)
    7a89:	75 28                	jne    7ab3 <_Z16privateGetStatusP12phFuncStructPKcS2_PPc+0x284>
    7a8b:	48 8b 45 c8          	mov    -0x38(%rbp),%rax
    7a8f:	48 8b 40 10          	mov    0x10(%rax),%rax
    7a93:	48 8d 15 0e 3c 00 00 	lea    0x3c0e(%rip),%rdx        # b6a8 <_fini+0x209c>
    7a9a:	be 02 00 00 00       	mov    $0x2,%esi
    7a9f:	48 89 c7             	mov    %rax,%rdi
    7aa2:	b8 00 00 00 00       	mov    $0x0,%eax
    7aa7:	e8 44 b1 ff ff       	callq  2bf0 <_Z16phLogFuncMessageP11phLogStruct11phLogType_tPKcz@plt>
    7aac:	c7 45 f4 01 00 00 00 	movl   $0x1,-0xc(%rbp)
    7ab3:	8b 45 f4             	mov    -0xc(%rbp),%eax
    7ab6:	83 e8 01             	sub    $0x1,%eax
    7ab9:	48 98                	cltq   
    7abb:	48 c1 e0 06          	shl    $0x6,%rax
    7abf:	48 89 c2             	mov    %rax,%rdx
    7ac2:	48 8d 05 57 74 20 00 	lea    0x207457(%rip),%rax        # 20ef20 <_ZL15handlerSiteName>
    7ac9:	48 01 d0             	add    %rdx,%rax
    7acc:	ba 02 00 00 00       	mov    $0x2,%edx
    7ad1:	48 89 c6             	mov    %rax,%rsi
    7ad4:	48 8d 3d 45 74 21 00 	lea    0x217445(%rip),%rdi        # 21ef20 <_ZZ16privateGetStatusP12phFuncStructPKcS2_PPcE13handlerAnswer>
    7adb:	e8 70 b4 ff ff       	callq  2f50 <strncpy@plt>
    7ae0:	48 8d 3d 39 74 21 00 	lea    0x217439(%rip),%rdi        # 21ef20 <_ZZ16privateGetStatusP12phFuncStructPKcS2_PPcE13handlerAnswer>
    7ae7:	e8 34 b2 ff ff       	callq  2d20 <strlen@plt>
    7aec:	48 89 c2             	mov    %rax,%rdx
    7aef:	48 8b 45 c8          	mov    -0x38(%rbp),%rax
    7af3:	48 8b 40 10          	mov    0x10(%rax),%rax
    7af7:	49 89 d0             	mov    %rdx,%r8
    7afa:	48 8d 0d 1f 74 21 00 	lea    0x21741f(%rip),%rcx        # 21ef20 <_ZZ16privateGetStatusP12phFuncStructPKcS2_PPcE13handlerAnswer>
    7b01:	48 8d 15 f8 3b 00 00 	lea    0x3bf8(%rip),%rdx        # b700 <_fini+0x20f4>
    7b08:	be 03 00 00 00       	mov    $0x3,%esi
    7b0d:	48 89 c7             	mov    %rax,%rdi
    7b10:	b8 00 00 00 00       	mov    $0x0,%eax
    7b15:	e8 d6 b0 ff ff       	callq  2bf0 <_Z16phLogFuncMessageP11phLogStruct11phLogType_tPKcz@plt>
    7b1a:	8b 45 dc             	mov    -0x24(%rbp),%eax
    7b1d:	c9                   	leaveq 
    7b1e:	c3                   	retq   

0000000000007b1f <_ZL12phFuncTaPushP12phFuncStruct>:
    7b1f:	55                   	push   %rbp
    7b20:	48 89 e5             	mov    %rsp,%rbp
    7b23:	48 83 ec 20          	sub    $0x20,%rsp
    7b27:	48 89 7d e8          	mov    %rdi,-0x18(%rbp)
    7b2b:	bf 38 00 00 00       	mov    $0x38,%edi
    7b30:	e8 6b b1 ff ff       	callq  2ca0 <malloc@plt>
    7b35:	48 89 45 f8          	mov    %rax,-0x8(%rbp)
    7b39:	48 8b 45 e8          	mov    -0x18(%rbp),%rax
    7b3d:	48 8b 80 70 40 00 00 	mov    0x4070(%rax),%rax
    7b44:	48 85 c0             	test   %rax,%rax
    7b47:	74 47                	je     7b90 <_ZL12phFuncTaPushP12phFuncStruct+0x71>
    7b49:	48 8b 45 e8          	mov    -0x18(%rbp),%rax
    7b4d:	48 8b 90 70 40 00 00 	mov    0x4070(%rax),%rdx
    7b54:	48 8b 45 f8          	mov    -0x8(%rbp),%rax
    7b58:	48 8b 0a             	mov    (%rdx),%rcx
    7b5b:	48 89 08             	mov    %rcx,(%rax)
    7b5e:	48 8b 4a 08          	mov    0x8(%rdx),%rcx
    7b62:	48 89 48 08          	mov    %rcx,0x8(%rax)
    7b66:	48 8b 4a 10          	mov    0x10(%rdx),%rcx
    7b6a:	48 89 48 10          	mov    %rcx,0x10(%rax)
    7b6e:	48 8b 4a 18          	mov    0x18(%rdx),%rcx
    7b72:	48 89 48 18          	mov    %rcx,0x18(%rax)
    7b76:	48 8b 4a 20          	mov    0x20(%rdx),%rcx
    7b7a:	48 89 48 20          	mov    %rcx,0x20(%rax)
    7b7e:	48 8b 4a 28          	mov    0x28(%rdx),%rcx
    7b82:	48 89 48 28          	mov    %rcx,0x28(%rax)
    7b86:	48 8b 52 30          	mov    0x30(%rdx),%rdx
    7b8a:	48 89 50 30          	mov    %rdx,0x30(%rax)
    7b8e:	eb 63                	jmp    7bf3 <_ZL12phFuncTaPushP12phFuncStruct+0xd4>
    7b90:	48 8b 45 f8          	mov    -0x8(%rbp),%rax
    7b94:	c7 40 08 00 00 00 00 	movl   $0x0,0x8(%rax)
    7b9b:	48 8b 45 f8          	mov    -0x8(%rbp),%rax
    7b9f:	c7 40 0c 00 00 00 00 	movl   $0x0,0xc(%rax)
    7ba6:	48 8b 45 f8          	mov    -0x8(%rbp),%rax
    7baa:	c7 40 10 00 00 00 00 	movl   $0x0,0x10(%rax)
    7bb1:	48 8b 45 f8          	mov    -0x8(%rbp),%rax
    7bb5:	c7 40 14 00 00 00 00 	movl   $0x0,0x14(%rax)
    7bbc:	48 8b 45 f8          	mov    -0x8(%rbp),%rax
    7bc0:	c7 40 18 00 00 00 00 	movl   $0x0,0x18(%rax)
    7bc7:	48 8b 45 f8          	mov    -0x8(%rbp),%rax
    7bcb:	c7 00 00 00 00 00    	movl   $0x0,(%rax)
    7bd1:	48 8b 45 f8          	mov    -0x8(%rbp),%rax
    7bd5:	c7 40 04 00 00 00 00 	movl   $0x0,0x4(%rax)
    7bdc:	48 8b 45 f8          	mov    -0x8(%rbp),%rax
    7be0:	48 c7 40 20 00 00 00 	movq   $0x0,0x20(%rax)
    7be7:	00 
    7be8:	48 8b 45 f8          	mov    -0x8(%rbp),%rax
    7bec:	c7 40 28 00 00 00 00 	movl   $0x0,0x28(%rax)
    7bf3:	48 8b 45 e8          	mov    -0x18(%rbp),%rax
    7bf7:	48 8b 90 70 40 00 00 	mov    0x4070(%rax),%rdx
    7bfe:	48 8b 45 f8          	mov    -0x8(%rbp),%rax
    7c02:	48 89 50 30          	mov    %rdx,0x30(%rax)
    7c06:	48 8b 45 e8          	mov    -0x18(%rbp),%rax
    7c0a:	48 8b 55 f8          	mov    -0x8(%rbp),%rdx
    7c0e:	48 89 90 70 40 00 00 	mov    %rdx,0x4070(%rax)
    7c15:	c9                   	leaveq 
    7c16:	c3                   	retq   

0000000000007c17 <_Z12phFuncTaInitP12phFuncStruct>:
    7c17:	55                   	push   %rbp
    7c18:	48 89 e5             	mov    %rsp,%rbp
    7c1b:	48 83 ec 10          	sub    $0x10,%rsp
    7c1f:	48 89 7d f8          	mov    %rdi,-0x8(%rbp)
    7c23:	48 8b 45 f8          	mov    -0x8(%rbp),%rax
    7c27:	48 c7 80 70 40 00 00 	movq   $0x0,0x4070(%rax)
    7c2e:	00 00 00 00 
    7c32:	48 8b 45 f8          	mov    -0x8(%rbp),%rax
    7c36:	48 89 c7             	mov    %rax,%rdi
    7c39:	e8 e1 fe ff ff       	callq  7b1f <_ZL12phFuncTaPushP12phFuncStruct>
    7c3e:	48 8b 45 f8          	mov    -0x8(%rbp),%rax
    7c42:	48 8b 40 10          	mov    0x10(%rax),%rax
    7c46:	48 8d 15 f3 3e 00 00 	lea    0x3ef3(%rip),%rdx        # bb40 <_ZZ15privateGetStartP12phFuncStructE12__FUNCTION__+0x3e0>
    7c4d:	be 07 00 00 00       	mov    $0x7,%esi
    7c52:	48 89 c7             	mov    %rax,%rdi
    7c55:	b8 00 00 00 00       	mov    $0x0,%eax
    7c5a:	e8 91 af ff ff       	callq  2bf0 <_Z16phLogFuncMessageP11phLogStruct11phLogType_tPKcz@plt>
    7c5f:	c9                   	leaveq 
    7c60:	c3                   	retq   

0000000000007c61 <_Z15phFuncTaSetCallP12phFuncStruct20phFuncAvailability_t>:
    7c61:	55                   	push   %rbp
    7c62:	48 89 e5             	mov    %rsp,%rbp
    7c65:	48 83 ec 10          	sub    $0x10,%rsp
    7c69:	48 89 7d f8          	mov    %rdi,-0x8(%rbp)
    7c6d:	89 75 f4             	mov    %esi,-0xc(%rbp)
    7c70:	48 8b 45 f8          	mov    -0x8(%rbp),%rax
    7c74:	48 8b 80 70 40 00 00 	mov    0x4070(%rax),%rax
    7c7b:	48 8b 55 f8          	mov    -0x8(%rbp),%rdx
    7c7f:	48 8b 92 70 40 00 00 	mov    0x4070(%rdx),%rdx
    7c86:	8b 52 04             	mov    0x4(%rdx),%edx
    7c89:	89 10                	mov    %edx,(%rax)
    7c8b:	48 8b 45 f8          	mov    -0x8(%rbp),%rax
    7c8f:	48 8b 80 70 40 00 00 	mov    0x4070(%rax),%rax
    7c96:	8b 55 f4             	mov    -0xc(%rbp),%edx
    7c99:	89 50 04             	mov    %edx,0x4(%rax)
    7c9c:	48 8b 45 f8          	mov    -0x8(%rbp),%rax
    7ca0:	48 8b 80 70 40 00 00 	mov    0x4070(%rax),%rax
    7ca7:	c7 40 08 00 00 00 00 	movl   $0x0,0x8(%rax)
    7cae:	48 8b 45 f8          	mov    -0x8(%rbp),%rax
    7cb2:	48 8b 80 70 40 00 00 	mov    0x4070(%rax),%rax
    7cb9:	8b 10                	mov    (%rax),%edx
    7cbb:	48 8b 45 f8          	mov    -0x8(%rbp),%rax
    7cbf:	48 8b 80 70 40 00 00 	mov    0x4070(%rax),%rax
    7cc6:	8b 40 04             	mov    0x4(%rax),%eax
    7cc9:	39 c2                	cmp    %eax,%edx
    7ccb:	74 35                	je     7d02 <_Z15phFuncTaSetCallP12phFuncStruct20phFuncAvailability_t+0xa1>
    7ccd:	48 8b 45 f8          	mov    -0x8(%rbp),%rax
    7cd1:	48 8b 40 10          	mov    0x10(%rax),%rax
    7cd5:	48 8d 15 84 3e 00 00 	lea    0x3e84(%rip),%rdx        # bb60 <_ZZ15privateGetStartP12phFuncStructE12__FUNCTION__+0x400>
    7cdc:	be 07 00 00 00       	mov    $0x7,%esi
    7ce1:	48 89 c7             	mov    %rax,%rdi
    7ce4:	b8 00 00 00 00       	mov    $0x0,%eax
    7ce9:	e8 02 af ff ff       	callq  2bf0 <_Z16phLogFuncMessageP11phLogStruct11phLogType_tPKcz@plt>
    7cee:	48 8b 45 f8          	mov    -0x8(%rbp),%rax
    7cf2:	48 8b 80 70 40 00 00 	mov    0x4070(%rax),%rax
    7cf9:	c7 40 0c 00 00 00 00 	movl   $0x0,0xc(%rax)
    7d00:	eb 21                	jmp    7d23 <_Z15phFuncTaSetCallP12phFuncStruct20phFuncAvailability_t+0xc2>
    7d02:	48 8b 45 f8          	mov    -0x8(%rbp),%rax
    7d06:	48 8b 40 10          	mov    0x10(%rax),%rax
    7d0a:	48 8d 15 77 3e 00 00 	lea    0x3e77(%rip),%rdx        # bb88 <_ZZ15privateGetStartP12phFuncStructE12__FUNCTION__+0x428>
    7d11:	be 07 00 00 00       	mov    $0x7,%esi
    7d16:	48 89 c7             	mov    %rax,%rdi
    7d19:	b8 00 00 00 00       	mov    $0x0,%eax
    7d1e:	e8 cd ae ff ff       	callq  2bf0 <_Z16phLogFuncMessageP11phLogStruct11phLogType_tPKcz@plt>
    7d23:	c9                   	leaveq 
    7d24:	c3                   	retq   

0000000000007d25 <_Z22phFuncTaSetSpecialCallP12phFuncStruct20phFuncAvailability_t>:
    7d25:	55                   	push   %rbp
    7d26:	48 89 e5             	mov    %rsp,%rbp
    7d29:	48 83 ec 10          	sub    $0x10,%rsp
    7d2d:	48 89 7d f8          	mov    %rdi,-0x8(%rbp)
    7d31:	89 75 f4             	mov    %esi,-0xc(%rbp)
    7d34:	48 8b 45 f8          	mov    -0x8(%rbp),%rax
    7d38:	48 8b 40 10          	mov    0x10(%rax),%rax
    7d3c:	48 8d 15 75 3e 00 00 	lea    0x3e75(%rip),%rdx        # bbb8 <_ZZ15privateGetStartP12phFuncStructE12__FUNCTION__+0x458>
    7d43:	be 07 00 00 00       	mov    $0x7,%esi
    7d48:	48 89 c7             	mov    %rax,%rdi
    7d4b:	b8 00 00 00 00       	mov    $0x0,%eax
    7d50:	e8 9b ae ff ff       	callq  2bf0 <_Z16phLogFuncMessageP11phLogStruct11phLogType_tPKcz@plt>
    7d55:	c9                   	leaveq 
    7d56:	c3                   	retq   

0000000000007d57 <_Z19phFuncTaGetLastCallP12phFuncStructP20phFuncAvailability_t>:
    7d57:	55                   	push   %rbp
    7d58:	48 89 e5             	mov    %rsp,%rbp
    7d5b:	48 89 7d f8          	mov    %rdi,-0x8(%rbp)
    7d5f:	48 89 75 f0          	mov    %rsi,-0x10(%rbp)
    7d63:	48 8b 45 f8          	mov    -0x8(%rbp),%rax
    7d67:	48 8b 80 70 40 00 00 	mov    0x4070(%rax),%rax
    7d6e:	8b 10                	mov    (%rax),%edx
    7d70:	48 8b 45 f0          	mov    -0x10(%rbp),%rax
    7d74:	89 10                	mov    %edx,(%rax)
    7d76:	5d                   	pop    %rbp
    7d77:	c3                   	retq   

0000000000007d78 <_Z13phFuncTaStartP12phFuncStruct>:
    7d78:	55                   	push   %rbp
    7d79:	48 89 e5             	mov    %rsp,%rbp
    7d7c:	48 83 ec 10          	sub    $0x10,%rsp
    7d80:	48 89 7d f8          	mov    %rdi,-0x8(%rbp)
    7d84:	48 8b 45 f8          	mov    -0x8(%rbp),%rax
    7d88:	48 8b 40 10          	mov    0x10(%rax),%rax
    7d8c:	48 8d 15 51 3e 00 00 	lea    0x3e51(%rip),%rdx        # bbe4 <_ZZ15privateGetStartP12phFuncStructE12__FUNCTION__+0x484>
    7d93:	be 07 00 00 00       	mov    $0x7,%esi
    7d98:	48 89 c7             	mov    %rax,%rdi
    7d9b:	b8 00 00 00 00       	mov    $0x0,%eax
    7da0:	e8 4b ae ff ff       	callq  2bf0 <_Z16phLogFuncMessageP11phLogStruct11phLogType_tPKcz@plt>
    7da5:	48 8b 45 f8          	mov    -0x8(%rbp),%rax
    7da9:	48 8b 80 70 40 00 00 	mov    0x4070(%rax),%rax
    7db0:	c7 40 08 00 00 00 00 	movl   $0x0,0x8(%rax)
    7db7:	48 8b 45 f8          	mov    -0x8(%rbp),%rax
    7dbb:	48 8b 80 70 40 00 00 	mov    0x4070(%rax),%rax
    7dc2:	c7 40 18 00 00 00 00 	movl   $0x0,0x18(%rax)
    7dc9:	c9                   	leaveq 
    7dca:	c3                   	retq   

0000000000007dcb <_Z12phFuncTaStopP12phFuncStruct>:
    7dcb:	55                   	push   %rbp
    7dcc:	48 89 e5             	mov    %rsp,%rbp
    7dcf:	48 83 ec 10          	sub    $0x10,%rsp
    7dd3:	48 89 7d f8          	mov    %rdi,-0x8(%rbp)
    7dd7:	48 8b 45 f8          	mov    -0x8(%rbp),%rax
    7ddb:	48 8b 40 10          	mov    0x10(%rax),%rax
    7ddf:	48 8d 15 12 3e 00 00 	lea    0x3e12(%rip),%rdx        # bbf8 <_ZZ15privateGetStartP12phFuncStructE12__FUNCTION__+0x498>
    7de6:	be 07 00 00 00       	mov    $0x7,%esi
    7deb:	48 89 c7             	mov    %rax,%rdi
    7dee:	b8 00 00 00 00       	mov    $0x0,%eax
    7df3:	e8 f8 ad ff ff       	callq  2bf0 <_Z16phLogFuncMessageP11phLogStruct11phLogType_tPKcz@plt>
    7df8:	48 8b 45 f8          	mov    -0x8(%rbp),%rax
    7dfc:	48 8b 80 70 40 00 00 	mov    0x4070(%rax),%rax
    7e03:	c7 40 08 00 00 00 00 	movl   $0x0,0x8(%rax)
    7e0a:	48 8b 45 f8          	mov    -0x8(%rbp),%rax
    7e0e:	48 8b 80 70 40 00 00 	mov    0x4070(%rax),%rax
    7e15:	c7 40 0c 00 00 00 00 	movl   $0x0,0xc(%rax)
    7e1c:	48 8b 45 f8          	mov    -0x8(%rbp),%rax
    7e20:	48 8b 80 70 40 00 00 	mov    0x4070(%rax),%rax
    7e27:	c7 40 18 00 00 00 00 	movl   $0x0,0x18(%rax)
    7e2e:	c9                   	leaveq 
    7e2f:	c3                   	retq   

0000000000007e30 <_Z16phFuncTaAskAbortP12phFuncStruct>:
    7e30:	55                   	push   %rbp
    7e31:	48 89 e5             	mov    %rsp,%rbp
    7e34:	48 83 ec 10          	sub    $0x10,%rsp
    7e38:	48 89 7d f8          	mov    %rdi,-0x8(%rbp)
    7e3c:	48 8b 45 f8          	mov    -0x8(%rbp),%rax
    7e40:	48 8b 80 70 40 00 00 	mov    0x4070(%rax),%rax
    7e47:	8b 40 04             	mov    0x4(%rax),%eax
    7e4a:	89 c6                	mov    %eax,%esi
    7e4c:	48 8b 45 f8          	mov    -0x8(%rbp),%rax
    7e50:	48 8b 80 70 40 00 00 	mov    0x4070(%rax),%rax
    7e57:	8b 00                	mov    (%rax),%eax
    7e59:	89 c1                	mov    %eax,%ecx
    7e5b:	48 8b 45 f8          	mov    -0x8(%rbp),%rax
    7e5f:	48 8b 80 70 40 00 00 	mov    0x4070(%rax),%rax
    7e66:	8b 50 18             	mov    0x18(%rax),%edx
    7e69:	48 8b 45 f8          	mov    -0x8(%rbp),%rax
    7e6d:	48 8b 40 10          	mov    0x10(%rax),%rax
    7e71:	41 89 f1             	mov    %esi,%r9d
    7e74:	41 89 c8             	mov    %ecx,%r8d
    7e77:	89 d1                	mov    %edx,%ecx
    7e79:	48 8d 15 90 3d 00 00 	lea    0x3d90(%rip),%rdx        # bc10 <_ZZ15privateGetStartP12phFuncStructE12__FUNCTION__+0x4b0>
    7e80:	be 07 00 00 00       	mov    $0x7,%esi
    7e85:	48 89 c7             	mov    %rax,%rdi
    7e88:	b8 00 00 00 00       	mov    $0x0,%eax
    7e8d:	e8 5e ad ff ff       	callq  2bf0 <_Z16phLogFuncMessageP11phLogStruct11phLogType_tPKcz@plt>
    7e92:	48 8b 45 f8          	mov    -0x8(%rbp),%rax
    7e96:	48 8b 80 70 40 00 00 	mov    0x4070(%rax),%rax
    7e9d:	8b 40 18             	mov    0x18(%rax),%eax
    7ea0:	85 c0                	test   %eax,%eax
    7ea2:	74 60                	je     7f04 <_Z16phFuncTaAskAbortP12phFuncStruct+0xd4>
    7ea4:	48 8b 45 f8          	mov    -0x8(%rbp),%rax
    7ea8:	48 8b 80 70 40 00 00 	mov    0x4070(%rax),%rax
    7eaf:	c7 40 18 00 00 00 00 	movl   $0x0,0x18(%rax)
    7eb6:	48 8b 45 f8          	mov    -0x8(%rbp),%rax
    7eba:	48 8b 80 70 40 00 00 	mov    0x4070(%rax),%rax
    7ec1:	8b 10                	mov    (%rax),%edx
    7ec3:	48 8b 45 f8          	mov    -0x8(%rbp),%rax
    7ec7:	48 8b 80 70 40 00 00 	mov    0x4070(%rax),%rax
    7ece:	8b 40 04             	mov    0x4(%rax),%eax
    7ed1:	39 c2                	cmp    %eax,%edx
    7ed3:	75 28                	jne    7efd <_Z16phFuncTaAskAbortP12phFuncStruct+0xcd>
    7ed5:	48 8b 45 f8          	mov    -0x8(%rbp),%rax
    7ed9:	48 8b 40 10          	mov    0x10(%rax),%rax
    7edd:	48 8d 15 7c 3d 00 00 	lea    0x3d7c(%rip),%rdx        # bc60 <_ZZ15privateGetStartP12phFuncStructE12__FUNCTION__+0x500>
    7ee4:	be 07 00 00 00       	mov    $0x7,%esi
    7ee9:	48 89 c7             	mov    %rax,%rdi
    7eec:	b8 00 00 00 00       	mov    $0x0,%eax
    7ef1:	e8 fa ac ff ff       	callq  2bf0 <_Z16phLogFuncMessageP11phLogStruct11phLogType_tPKcz@plt>
    7ef6:	b8 01 00 00 00       	mov    $0x1,%eax
    7efb:	eb 0c                	jmp    7f09 <_Z16phFuncTaAskAbortP12phFuncStruct+0xd9>
    7efd:	b8 00 00 00 00       	mov    $0x0,%eax
    7f02:	eb 05                	jmp    7f09 <_Z16phFuncTaAskAbortP12phFuncStruct+0xd9>
    7f04:	b8 00 00 00 00       	mov    $0x0,%eax
    7f09:	c9                   	leaveq 
    7f0a:	c3                   	retq   

0000000000007f0b <_Z15phFuncTaDoAbortP12phFuncStruct>:
    7f0b:	55                   	push   %rbp
    7f0c:	48 89 e5             	mov    %rsp,%rbp
    7f0f:	48 83 ec 10          	sub    $0x10,%rsp
    7f13:	48 89 7d f8          	mov    %rdi,-0x8(%rbp)
    7f17:	48 8b 45 f8          	mov    -0x8(%rbp),%rax
    7f1b:	48 8b 40 10          	mov    0x10(%rax),%rax
    7f1f:	48 8d 15 62 3d 00 00 	lea    0x3d62(%rip),%rdx        # bc88 <_ZZ15privateGetStartP12phFuncStructE12__FUNCTION__+0x528>
    7f26:	be 07 00 00 00       	mov    $0x7,%esi
    7f2b:	48 89 c7             	mov    %rax,%rdi
    7f2e:	b8 00 00 00 00       	mov    $0x0,%eax
    7f33:	e8 b8 ac ff ff       	callq  2bf0 <_Z16phLogFuncMessageP11phLogStruct11phLogType_tPKcz@plt>
    7f38:	48 8b 45 f8          	mov    -0x8(%rbp),%rax
    7f3c:	48 8b 80 70 40 00 00 	mov    0x4070(%rax),%rax
    7f43:	c7 40 18 01 00 00 00 	movl   $0x1,0x18(%rax)
    7f4a:	c9                   	leaveq 
    7f4b:	c3                   	retq   

0000000000007f4c <_Z15phFuncTaDoResetP12phFuncStruct>:
    7f4c:	55                   	push   %rbp
    7f4d:	48 89 e5             	mov    %rsp,%rbp
    7f50:	48 83 ec 10          	sub    $0x10,%rsp
    7f54:	48 89 7d f8          	mov    %rdi,-0x8(%rbp)
    7f58:	48 8b 45 f8          	mov    -0x8(%rbp),%rax
    7f5c:	48 8b 40 10          	mov    0x10(%rax),%rax
    7f60:	48 8d 15 44 3d 00 00 	lea    0x3d44(%rip),%rdx        # bcab <_ZZ15privateGetStartP12phFuncStructE12__FUNCTION__+0x54b>
    7f67:	be 07 00 00 00       	mov    $0x7,%esi
    7f6c:	48 89 c7             	mov    %rax,%rdi
    7f6f:	b8 00 00 00 00       	mov    $0x0,%eax
    7f74:	e8 77 ac ff ff       	callq  2bf0 <_Z16phLogFuncMessageP11phLogStruct11phLogType_tPKcz@plt>
    7f79:	48 8b 45 f8          	mov    -0x8(%rbp),%rax
    7f7d:	48 8b 80 70 40 00 00 	mov    0x4070(%rax),%rax
    7f84:	c7 40 0c 00 00 00 00 	movl   $0x0,0xc(%rax)
    7f8b:	48 8b 45 f8          	mov    -0x8(%rbp),%rax
    7f8f:	48 8b 80 70 40 00 00 	mov    0x4070(%rax),%rax
    7f96:	c7 40 08 00 00 00 00 	movl   $0x0,0x8(%rax)
    7f9d:	48 8b 45 f8          	mov    -0x8(%rbp),%rax
    7fa1:	48 8b 80 70 40 00 00 	mov    0x4070(%rax),%rax
    7fa8:	c7 40 18 00 00 00 00 	movl   $0x0,0x18(%rax)
    7faf:	c9                   	leaveq 
    7fb0:	c3                   	retq   

0000000000007fb1 <_Z18phFuncTaRemoveStepP12phFuncStruct>:
    7fb1:	55                   	push   %rbp
    7fb2:	48 89 e5             	mov    %rsp,%rbp
    7fb5:	48 83 ec 10          	sub    $0x10,%rsp
    7fb9:	48 89 7d f8          	mov    %rdi,-0x8(%rbp)
    7fbd:	48 8b 45 f8          	mov    -0x8(%rbp),%rax
    7fc1:	48 8b 40 10          	mov    0x10(%rax),%rax
    7fc5:	48 8d 15 fc 3c 00 00 	lea    0x3cfc(%rip),%rdx        # bcc8 <_ZZ15privateGetStartP12phFuncStructE12__FUNCTION__+0x568>
    7fcc:	be 07 00 00 00       	mov    $0x7,%esi
    7fd1:	48 89 c7             	mov    %rax,%rdi
    7fd4:	b8 00 00 00 00       	mov    $0x0,%eax
    7fd9:	e8 12 ac ff ff       	callq  2bf0 <_Z16phLogFuncMessageP11phLogStruct11phLogType_tPKcz@plt>
    7fde:	48 8b 45 f8          	mov    -0x8(%rbp),%rax
    7fe2:	48 8b 80 70 40 00 00 	mov    0x4070(%rax),%rax
    7fe9:	8b 50 0c             	mov    0xc(%rax),%edx
    7fec:	83 ea 01             	sub    $0x1,%edx
    7fef:	89 50 0c             	mov    %edx,0xc(%rax)
    7ff2:	48 8b 45 f8          	mov    -0x8(%rbp),%rax
    7ff6:	48 8b 80 70 40 00 00 	mov    0x4070(%rax),%rax
    7ffd:	8b 50 08             	mov    0x8(%rax),%edx
    8000:	83 ea 01             	sub    $0x1,%edx
    8003:	89 50 08             	mov    %edx,0x8(%rax)
    8006:	c9                   	leaveq 
    8007:	c3                   	retq   

0000000000008008 <_Z16phFuncTaMarkStepP12phFuncStruct>:
    8008:	55                   	push   %rbp
    8009:	48 89 e5             	mov    %rsp,%rbp
    800c:	48 83 ec 10          	sub    $0x10,%rsp
    8010:	48 89 7d f8          	mov    %rdi,-0x8(%rbp)
    8014:	48 8b 45 f8          	mov    -0x8(%rbp),%rax
    8018:	48 8b 80 70 40 00 00 	mov    0x4070(%rax),%rax
    801f:	8b 50 08             	mov    0x8(%rax),%edx
    8022:	83 c2 01             	add    $0x1,%edx
    8025:	89 50 08             	mov    %edx,0x8(%rax)
    8028:	48 8b 45 f8          	mov    -0x8(%rbp),%rax
    802c:	48 8b 80 70 40 00 00 	mov    0x4070(%rax),%rax
    8033:	8b 50 0c             	mov    0xc(%rax),%edx
    8036:	48 8b 45 f8          	mov    -0x8(%rbp),%rax
    803a:	48 8b 80 70 40 00 00 	mov    0x4070(%rax),%rax
    8041:	8b 40 08             	mov    0x8(%rax),%eax
    8044:	39 c2                	cmp    %eax,%edx
    8046:	7c 23                	jl     806b <_Z16phFuncTaMarkStepP12phFuncStruct+0x63>
    8048:	48 8b 45 f8          	mov    -0x8(%rbp),%rax
    804c:	48 8b 40 10          	mov    0x10(%rax),%rax
    8050:	48 8d 15 99 3c 00 00 	lea    0x3c99(%rip),%rdx        # bcf0 <_ZZ15privateGetStartP12phFuncStructE12__FUNCTION__+0x590>
    8057:	be 07 00 00 00       	mov    $0x7,%esi
    805c:	48 89 c7             	mov    %rax,%rdi
    805f:	b8 00 00 00 00       	mov    $0x0,%eax
    8064:	e8 87 ab ff ff       	callq  2bf0 <_Z16phLogFuncMessageP11phLogStruct11phLogType_tPKcz@plt>
    8069:	eb 73                	jmp    80de <_Z16phFuncTaMarkStepP12phFuncStruct+0xd6>
    806b:	48 8b 45 f8          	mov    -0x8(%rbp),%rax
    806f:	48 8b 80 70 40 00 00 	mov    0x4070(%rax),%rax
    8076:	8b 50 0c             	mov    0xc(%rax),%edx
    8079:	83 c2 01             	add    $0x1,%edx
    807c:	89 50 0c             	mov    %edx,0xc(%rax)
    807f:	48 8b 45 f8          	mov    -0x8(%rbp),%rax
    8083:	48 8b 40 10          	mov    0x10(%rax),%rax
    8087:	48 8d 15 92 3c 00 00 	lea    0x3c92(%rip),%rdx        # bd20 <_ZZ15privateGetStartP12phFuncStructE12__FUNCTION__+0x5c0>
    808e:	be 07 00 00 00       	mov    $0x7,%esi
    8093:	48 89 c7             	mov    %rax,%rdi
    8096:	b8 00 00 00 00       	mov    $0x0,%eax
    809b:	e8 50 ab ff ff       	callq  2bf0 <_Z16phLogFuncMessageP11phLogStruct11phLogType_tPKcz@plt>
    80a0:	48 8b 45 f8          	mov    -0x8(%rbp),%rax
    80a4:	48 8b 80 70 40 00 00 	mov    0x4070(%rax),%rax
    80ab:	48 8b 55 f8          	mov    -0x8(%rbp),%rdx
    80af:	48 8b 92 70 40 00 00 	mov    0x4070(%rdx),%rdx
    80b6:	8b 52 0c             	mov    0xc(%rdx),%edx
    80b9:	83 ea 01             	sub    $0x1,%edx
    80bc:	89 50 14             	mov    %edx,0x14(%rax)
    80bf:	48 8b 45 f8          	mov    -0x8(%rbp),%rax
    80c3:	48 8b 80 70 40 00 00 	mov    0x4070(%rax),%rax
    80ca:	48 8b 55 f8          	mov    -0x8(%rbp),%rdx
    80ce:	48 8b 92 70 40 00 00 	mov    0x4070(%rdx),%rdx
    80d5:	8b 52 08             	mov    0x8(%rdx),%edx
    80d8:	83 ea 01             	sub    $0x1,%edx
    80db:	89 50 10             	mov    %edx,0x10(%rax)
    80de:	c9                   	leaveq 
    80df:	c3                   	retq   

00000000000080e0 <_Z20phFuncTaRemoveToMarkP12phFuncStruct>:
    80e0:	55                   	push   %rbp
    80e1:	48 89 e5             	mov    %rsp,%rbp
    80e4:	48 83 ec 10          	sub    $0x10,%rsp
    80e8:	48 89 7d f8          	mov    %rdi,-0x8(%rbp)
    80ec:	48 8b 45 f8          	mov    -0x8(%rbp),%rax
    80f0:	48 8b 40 10          	mov    0x10(%rax),%rax
    80f4:	48 8d 15 4d 3c 00 00 	lea    0x3c4d(%rip),%rdx        # bd48 <_ZZ15privateGetStartP12phFuncStructE12__FUNCTION__+0x5e8>
    80fb:	be 07 00 00 00       	mov    $0x7,%esi
    8100:	48 89 c7             	mov    %rax,%rdi
    8103:	b8 00 00 00 00       	mov    $0x0,%eax
    8108:	e8 e3 aa ff ff       	callq  2bf0 <_Z16phLogFuncMessageP11phLogStruct11phLogType_tPKcz@plt>
    810d:	48 8b 45 f8          	mov    -0x8(%rbp),%rax
    8111:	48 8b 80 70 40 00 00 	mov    0x4070(%rax),%rax
    8118:	48 8b 55 f8          	mov    -0x8(%rbp),%rdx
    811c:	48 8b 92 70 40 00 00 	mov    0x4070(%rdx),%rdx
    8123:	8b 52 14             	mov    0x14(%rdx),%edx
    8126:	89 50 0c             	mov    %edx,0xc(%rax)
    8129:	48 8b 45 f8          	mov    -0x8(%rbp),%rax
    812d:	48 8b 80 70 40 00 00 	mov    0x4070(%rax),%rax
    8134:	48 8b 55 f8          	mov    -0x8(%rbp),%rdx
    8138:	48 8b 92 70 40 00 00 	mov    0x4070(%rdx),%rdx
    813f:	8b 52 10             	mov    0x10(%rdx),%edx
    8142:	89 50 08             	mov    %edx,0x8(%rax)
    8145:	c9                   	leaveq 
    8146:	c3                   	retq   

0000000000008147 <_Z21phFuncTaAddSRQHandlerP12phFuncStructiPF13phFuncError_tS0_iE>:
    8147:	55                   	push   %rbp
    8148:	48 89 e5             	mov    %rsp,%rbp
    814b:	48 83 ec 30          	sub    $0x30,%rsp
    814f:	48 89 7d e8          	mov    %rdi,-0x18(%rbp)
    8153:	89 75 e4             	mov    %esi,-0x1c(%rbp)
    8156:	48 89 55 d8          	mov    %rdx,-0x28(%rbp)
    815a:	48 8b 45 e8          	mov    -0x18(%rbp),%rax
    815e:	8b 80 78 40 00 00    	mov    0x4078(%rax),%eax
    8164:	83 f8 04             	cmp    $0x4,%eax
    8167:	75 02                	jne    816b <_Z21phFuncTaAddSRQHandlerP12phFuncStructiPF13phFuncError_tS0_iE+0x24>
    8169:	eb 4d                	jmp    81b8 <_Z21phFuncTaAddSRQHandlerP12phFuncStructiPF13phFuncError_tS0_iE+0x71>
    816b:	bf 18 00 00 00       	mov    $0x18,%edi
    8170:	e8 2b ab ff ff       	callq  2ca0 <malloc@plt>
    8175:	48 89 45 f8          	mov    %rax,-0x8(%rbp)
    8179:	48 8b 45 f8          	mov    -0x8(%rbp),%rax
    817d:	8b 55 e4             	mov    -0x1c(%rbp),%edx
    8180:	89 10                	mov    %edx,(%rax)
    8182:	48 8b 45 f8          	mov    -0x8(%rbp),%rax
    8186:	48 8b 55 d8          	mov    -0x28(%rbp),%rdx
    818a:	48 89 50 08          	mov    %rdx,0x8(%rax)
    818e:	48 8b 45 e8          	mov    -0x18(%rbp),%rax
    8192:	48 8b 80 70 40 00 00 	mov    0x4070(%rax),%rax
    8199:	48 8b 50 20          	mov    0x20(%rax),%rdx
    819d:	48 8b 45 f8          	mov    -0x8(%rbp),%rax
    81a1:	48 89 50 10          	mov    %rdx,0x10(%rax)
    81a5:	48 8b 45 e8          	mov    -0x18(%rbp),%rax
    81a9:	48 8b 80 70 40 00 00 	mov    0x4070(%rax),%rax
    81b0:	48 8b 55 f8          	mov    -0x8(%rbp),%rdx
    81b4:	48 89 50 20          	mov    %rdx,0x20(%rax)
    81b8:	c9                   	leaveq 
    81b9:	c3                   	retq   

00000000000081ba <_Z12phFuncTaSendP12phFuncStructPKcz>:
    81ba:	55                   	push   %rbp
    81bb:	48 89 e5             	mov    %rsp,%rbp
    81be:	53                   	push   %rbx
    81bf:	48 81 ec e8 40 00 00 	sub    $0x40e8,%rsp
    81c6:	48 89 bd 18 bf ff ff 	mov    %rdi,-0x40e8(%rbp)
    81cd:	48 89 95 50 ff ff ff 	mov    %rdx,-0xb0(%rbp)
    81d4:	48 89 8d 58 ff ff ff 	mov    %rcx,-0xa8(%rbp)
    81db:	4c 89 85 60 ff ff ff 	mov    %r8,-0xa0(%rbp)
    81e2:	4c 89 8d 68 ff ff ff 	mov    %r9,-0x98(%rbp)
    81e9:	84 c0                	test   %al,%al
    81eb:	74 23                	je     8210 <_Z12phFuncTaSendP12phFuncStructPKcz+0x56>
    81ed:	0f 29 85 70 ff ff ff 	movaps %xmm0,-0x90(%rbp)
    81f4:	0f 29 4d 80          	movaps %xmm1,-0x80(%rbp)
    81f8:	0f 29 55 90          	movaps %xmm2,-0x70(%rbp)
    81fc:	0f 29 5d a0          	movaps %xmm3,-0x60(%rbp)
    8200:	0f 29 65 b0          	movaps %xmm4,-0x50(%rbp)
    8204:	0f 29 6d c0          	movaps %xmm5,-0x40(%rbp)
    8208:	0f 29 75 d0          	movaps %xmm6,-0x30(%rbp)
    820c:	0f 29 7d e0          	movaps %xmm7,-0x20(%rbp)
    8210:	48 89 b5 10 bf ff ff 	mov    %rsi,-0x40f0(%rbp)
    8217:	c7 85 3c ff ff ff 00 	movl   $0x0,-0xc4(%rbp)
    821e:	00 00 00 
    8221:	c7 85 20 ff ff ff 10 	movl   $0x10,-0xe0(%rbp)
    8228:	00 00 00 
    822b:	c7 85 24 ff ff ff 30 	movl   $0x30,-0xdc(%rbp)
    8232:	00 00 00 
    8235:	48 8d 45 10          	lea    0x10(%rbp),%rax
    8239:	48 89 85 28 ff ff ff 	mov    %rax,-0xd8(%rbp)
    8240:	48 8d 85 40 ff ff ff 	lea    -0xc0(%rbp),%rax
    8247:	48 89 85 30 ff ff ff 	mov    %rax,-0xd0(%rbp)
    824e:	48 8d 95 20 ff ff ff 	lea    -0xe0(%rbp),%rdx
    8255:	48 8b 8d 10 bf ff ff 	mov    -0x40f0(%rbp),%rcx
    825c:	48 8d 85 20 bf ff ff 	lea    -0x40e0(%rbp),%rax
    8263:	48 89 ce             	mov    %rcx,%rsi
    8266:	48 89 c7             	mov    %rax,%rdi
    8269:	e8 d2 aa ff ff       	callq  2d40 <vsprintf@plt>
    826e:	48 8b 85 18 bf ff ff 	mov    -0x40e8(%rbp),%rax
    8275:	48 8b 80 70 40 00 00 	mov    0x4070(%rax),%rax
    827c:	8b 50 08             	mov    0x8(%rax),%edx
    827f:	83 c2 01             	add    $0x1,%edx
    8282:	89 50 08             	mov    %edx,0x8(%rax)
    8285:	48 8b 85 18 bf ff ff 	mov    -0x40e8(%rbp),%rax
    828c:	48 8b 80 70 40 00 00 	mov    0x4070(%rax),%rax
    8293:	8b 50 0c             	mov    0xc(%rax),%edx
    8296:	48 8b 85 18 bf ff ff 	mov    -0x40e8(%rbp),%rax
    829d:	48 8b 80 70 40 00 00 	mov    0x4070(%rax),%rax
    82a4:	8b 40 08             	mov    0x8(%rax),%eax
    82a7:	39 c2                	cmp    %eax,%edx
    82a9:	7c 38                	jl     82e3 <_Z12phFuncTaSendP12phFuncStructPKcz+0x129>
    82ab:	48 8b 85 18 bf ff ff 	mov    -0x40e8(%rbp),%rax
    82b2:	48 8b 40 10          	mov    0x10(%rax),%rax
    82b6:	48 8d 95 20 bf ff ff 	lea    -0x40e0(%rbp),%rdx
    82bd:	48 89 d1             	mov    %rdx,%rcx
    82c0:	48 8d 15 b9 3a 00 00 	lea    0x3ab9(%rip),%rdx        # bd80 <_ZZ15privateGetStartP12phFuncStructE12__FUNCTION__+0x620>
    82c7:	be 07 00 00 00       	mov    $0x7,%esi
    82cc:	48 89 c7             	mov    %rax,%rdi
    82cf:	b8 00 00 00 00       	mov    $0x0,%eax
    82d4:	e8 17 a9 ff ff       	callq  2bf0 <_Z16phLogFuncMessageP11phLogStruct11phLogType_tPKcz@plt>
    82d9:	b8 00 00 00 00       	mov    $0x0,%eax
    82de:	e9 b1 02 00 00       	jmpq   8594 <_Z12phFuncTaSendP12phFuncStructPKcz+0x3da>
    82e3:	48 8b 85 18 bf ff ff 	mov    -0x40e8(%rbp),%rax
    82ea:	48 8b 48 48          	mov    0x48(%rax),%rcx
    82ee:	48 8b 85 18 bf ff ff 	mov    -0x40e8(%rbp),%rax
    82f5:	48 8b 40 10          	mov    0x10(%rax),%rax
    82f9:	48 8d 95 20 bf ff ff 	lea    -0x40e0(%rbp),%rdx
    8300:	49 89 c8             	mov    %rcx,%r8
    8303:	48 89 d1             	mov    %rdx,%rcx
    8306:	48 8d 15 a3 3a 00 00 	lea    0x3aa3(%rip),%rdx        # bdb0 <_ZZ15privateGetStartP12phFuncStructE12__FUNCTION__+0x650>
    830d:	be 06 00 00 00       	mov    $0x6,%esi
    8312:	48 89 c7             	mov    %rax,%rdi
    8315:	b8 00 00 00 00       	mov    $0x0,%eax
    831a:	e8 d1 a8 ff ff       	callq  2bf0 <_Z16phLogFuncMessageP11phLogStruct11phLogType_tPKcz@plt>
    831f:	48 8b 85 18 bf ff ff 	mov    -0x40e8(%rbp),%rax
    8326:	8b 80 78 40 00 00    	mov    0x4078(%rax),%eax
    832c:	83 f8 02             	cmp    $0x2,%eax
    832f:	75 41                	jne    8372 <_Z12phFuncTaSendP12phFuncStructPKcz+0x1b8>
    8331:	48 8b 85 18 bf ff ff 	mov    -0x40e8(%rbp),%rax
    8338:	48 8b 58 48          	mov    0x48(%rax),%rbx
    833c:	48 8d 85 20 bf ff ff 	lea    -0x40e0(%rbp),%rax
    8343:	48 89 c7             	mov    %rax,%rdi
    8346:	e8 d5 a9 ff ff       	callq  2d20 <strlen@plt>
    834b:	89 c2                	mov    %eax,%edx
    834d:	48 8b 85 18 bf ff ff 	mov    -0x40e8(%rbp),%rax
    8354:	48 8b 40 20          	mov    0x20(%rax),%rax
    8358:	48 8d b5 20 bf ff ff 	lea    -0x40e0(%rbp),%rsi
    835f:	48 89 d9             	mov    %rbx,%rcx
    8362:	48 89 c7             	mov    %rax,%rdi
    8365:	e8 c6 a9 ff ff       	callq  2d30 <_Z13phComGpibSendP11phComStructPcil@plt>
    836a:	89 85 3c ff ff ff    	mov    %eax,-0xc4(%rbp)
    8370:	eb 63                	jmp    83d5 <_Z12phFuncTaSendP12phFuncStructPKcz+0x21b>
    8372:	48 8b 85 18 bf ff ff 	mov    -0x40e8(%rbp),%rax
    8379:	8b 80 78 40 00 00    	mov    0x4078(%rax),%eax
    837f:	83 f8 04             	cmp    $0x4,%eax
    8382:	74 12                	je     8396 <_Z12phFuncTaSendP12phFuncStructPKcz+0x1dc>
    8384:	48 8b 85 18 bf ff ff 	mov    -0x40e8(%rbp),%rax
    838b:	8b 80 78 40 00 00    	mov    0x4078(%rax),%eax
    8391:	83 f8 05             	cmp    $0x5,%eax
    8394:	75 3f                	jne    83d5 <_Z12phFuncTaSendP12phFuncStructPKcz+0x21b>
    8396:	48 8b 85 18 bf ff ff 	mov    -0x40e8(%rbp),%rax
    839d:	48 8b 58 48          	mov    0x48(%rax),%rbx
    83a1:	48 8d 85 20 bf ff ff 	lea    -0x40e0(%rbp),%rax
    83a8:	48 89 c7             	mov    %rax,%rdi
    83ab:	e8 70 a9 ff ff       	callq  2d20 <strlen@plt>
    83b0:	89 c2                	mov    %eax,%edx
    83b2:	48 8b 85 18 bf ff ff 	mov    -0x40e8(%rbp),%rax
    83b9:	48 8b 40 20          	mov    0x20(%rax),%rax
    83bd:	48 8d b5 20 bf ff ff 	lea    -0x40e0(%rbp),%rsi
    83c4:	48 89 d9             	mov    %rbx,%rcx
    83c7:	48 89 c7             	mov    %rax,%rdi
    83ca:	e8 f1 ab ff ff       	callq  2fc0 <_Z12phComLanSendP11phComStructPcil@plt>
    83cf:	89 85 3c ff ff ff    	mov    %eax,-0xc4(%rbp)
    83d5:	48 8b 85 18 bf ff ff 	mov    -0x40e8(%rbp),%rax
    83dc:	8b 80 78 40 00 00    	mov    0x4078(%rax),%eax
    83e2:	83 f8 03             	cmp    $0x3,%eax
    83e5:	75 3f                	jne    8426 <_Z12phFuncTaSendP12phFuncStructPKcz+0x26c>
    83e7:	48 8b 85 18 bf ff ff 	mov    -0x40e8(%rbp),%rax
    83ee:	48 8b 58 48          	mov    0x48(%rax),%rbx
    83f2:	48 8d 85 20 bf ff ff 	lea    -0x40e0(%rbp),%rax
    83f9:	48 89 c7             	mov    %rax,%rdi
    83fc:	e8 1f a9 ff ff       	callq  2d20 <strlen@plt>
    8401:	89 c2                	mov    %eax,%edx
    8403:	48 8b 85 18 bf ff ff 	mov    -0x40e8(%rbp),%rax
    840a:	48 8b 40 20          	mov    0x20(%rax),%rax
    840e:	48 8d b5 20 bf ff ff 	lea    -0x40e0(%rbp),%rsi
    8415:	48 89 d9             	mov    %rbx,%rcx
    8418:	48 89 c7             	mov    %rax,%rdi
    841b:	e8 a0 a9 ff ff       	callq  2dc0 <_Z14phComRs232SendP11phComStructPcil@plt>
    8420:	89 85 3c ff ff ff    	mov    %eax,-0xc4(%rbp)
    8426:	8b 85 3c ff ff ff    	mov    -0xc4(%rbp),%eax
    842c:	85 c0                	test   %eax,%eax
    842e:	74 07                	je     8437 <_Z12phFuncTaSendP12phFuncStructPKcz+0x27d>
    8430:	83 f8 02             	cmp    $0x2,%eax
    8433:	74 47                	je     847c <_Z12phFuncTaSendP12phFuncStructPKcz+0x2c2>
    8435:	eb 7d                	jmp    84b4 <_Z12phFuncTaSendP12phFuncStructPKcz+0x2fa>
    8437:	48 8b 85 18 bf ff ff 	mov    -0x40e8(%rbp),%rax
    843e:	48 8b 80 70 40 00 00 	mov    0x4070(%rax),%rax
    8445:	8b 50 0c             	mov    0xc(%rax),%edx
    8448:	83 c2 01             	add    $0x1,%edx
    844b:	89 50 0c             	mov    %edx,0xc(%rax)
    844e:	48 8b 85 18 bf ff ff 	mov    -0x40e8(%rbp),%rax
    8455:	48 8b 40 10          	mov    0x10(%rax),%rax
    8459:	48 8d 15 87 39 00 00 	lea    0x3987(%rip),%rdx        # bde7 <_ZZ15privateGetStartP12phFuncStructE12__FUNCTION__+0x687>
    8460:	be 06 00 00 00       	mov    $0x6,%esi
    8465:	48 89 c7             	mov    %rax,%rdi
    8468:	b8 00 00 00 00       	mov    $0x0,%eax
    846d:	e8 7e a7 ff ff       	callq  2bf0 <_Z16phLogFuncMessageP11phLogStruct11phLogType_tPKcz@plt>
    8472:	b8 00 00 00 00       	mov    $0x0,%eax
    8477:	e9 18 01 00 00       	jmpq   8594 <_Z12phFuncTaSendP12phFuncStructPKcz+0x3da>
    847c:	48 8b 85 18 bf ff ff 	mov    -0x40e8(%rbp),%rax
    8483:	48 8b 40 10          	mov    0x10(%rax),%rax
    8487:	48 8d 95 20 bf ff ff 	lea    -0x40e0(%rbp),%rdx
    848e:	48 89 d1             	mov    %rdx,%rcx
    8491:	48 8d 15 60 39 00 00 	lea    0x3960(%rip),%rdx        # bdf8 <_ZZ15privateGetStartP12phFuncStructE12__FUNCTION__+0x698>
    8498:	be 02 00 00 00       	mov    $0x2,%esi
    849d:	48 89 c7             	mov    %rax,%rdi
    84a0:	b8 00 00 00 00       	mov    $0x0,%eax
    84a5:	e8 46 a7 ff ff       	callq  2bf0 <_Z16phLogFuncMessageP11phLogStruct11phLogType_tPKcz@plt>
    84aa:	b8 06 00 00 00       	mov    $0x6,%eax
    84af:	e9 e0 00 00 00       	jmpq   8594 <_Z12phFuncTaSendP12phFuncStructPKcz+0x3da>
    84b4:	48 8b 85 18 bf ff ff 	mov    -0x40e8(%rbp),%rax
    84bb:	8b 80 78 40 00 00    	mov    0x4078(%rax),%eax
    84c1:	83 f8 02             	cmp    $0x2,%eax
    84c4:	75 2e                	jne    84f4 <_Z12phFuncTaSendP12phFuncStructPKcz+0x33a>
    84c6:	48 8b 85 18 bf ff ff 	mov    -0x40e8(%rbp),%rax
    84cd:	48 8b 40 10          	mov    0x10(%rax),%rax
    84d1:	48 8d 15 4a 39 00 00 	lea    0x394a(%rip),%rdx        # be22 <_ZZ15privateGetStartP12phFuncStructE12__FUNCTION__+0x6c2>
    84d8:	be 01 00 00 00       	mov    $0x1,%esi
    84dd:	48 89 c7             	mov    %rax,%rdi
    84e0:	b8 00 00 00 00       	mov    $0x0,%eax
    84e5:	e8 06 a7 ff ff       	callq  2bf0 <_Z16phLogFuncMessageP11phLogStruct11phLogType_tPKcz@plt>
    84ea:	b8 08 00 00 00       	mov    $0x8,%eax
    84ef:	e9 a0 00 00 00       	jmpq   8594 <_Z12phFuncTaSendP12phFuncStructPKcz+0x3da>
    84f4:	48 8b 85 18 bf ff ff 	mov    -0x40e8(%rbp),%rax
    84fb:	8b 80 78 40 00 00    	mov    0x4078(%rax),%eax
    8501:	83 f8 04             	cmp    $0x4,%eax
    8504:	74 12                	je     8518 <_Z12phFuncTaSendP12phFuncStructPKcz+0x35e>
    8506:	48 8b 85 18 bf ff ff 	mov    -0x40e8(%rbp),%rax
    850d:	8b 80 78 40 00 00    	mov    0x4078(%rax),%eax
    8513:	83 f8 05             	cmp    $0x5,%eax
    8516:	75 2b                	jne    8543 <_Z12phFuncTaSendP12phFuncStructPKcz+0x389>
    8518:	48 8b 85 18 bf ff ff 	mov    -0x40e8(%rbp),%rax
    851f:	48 8b 40 10          	mov    0x10(%rax),%rax
    8523:	48 8d 15 0e 39 00 00 	lea    0x390e(%rip),%rdx        # be38 <_ZZ15privateGetStartP12phFuncStructE12__FUNCTION__+0x6d8>
    852a:	be 01 00 00 00       	mov    $0x1,%esi
    852f:	48 89 c7             	mov    %rax,%rdi
    8532:	b8 00 00 00 00       	mov    $0x0,%eax
    8537:	e8 b4 a6 ff ff       	callq  2bf0 <_Z16phLogFuncMessageP11phLogStruct11phLogType_tPKcz@plt>
    853c:	b8 09 00 00 00       	mov    $0x9,%eax
    8541:	eb 51                	jmp    8594 <_Z12phFuncTaSendP12phFuncStructPKcz+0x3da>
    8543:	48 8b 85 18 bf ff ff 	mov    -0x40e8(%rbp),%rax
    854a:	8b 80 78 40 00 00    	mov    0x4078(%rax),%eax
    8550:	83 f8 03             	cmp    $0x3,%eax
    8553:	75 3a                	jne    858f <_Z12phFuncTaSendP12phFuncStructPKcz+0x3d5>
    8555:	48 8b 85 18 bf ff ff 	mov    -0x40e8(%rbp),%rax
    855c:	48 8b 40 10          	mov    0x10(%rax),%rax
    8560:	48 8d 15 e9 38 00 00 	lea    0x38e9(%rip),%rdx        # be50 <_ZZ15privateGetStartP12phFuncStructE12__FUNCTION__+0x6f0>
    8567:	be 01 00 00 00       	mov    $0x1,%esi
    856c:	48 89 c7             	mov    %rax,%rdi
    856f:	b8 00 00 00 00       	mov    $0x0,%eax
    8574:	e8 77 a6 ff ff       	callq  2bf0 <_Z16phLogFuncMessageP11phLogStruct11phLogType_tPKcz@plt>
    8579:	48 8b 85 18 bf ff ff 	mov    -0x40e8(%rbp),%rax
    8580:	48 89 c7             	mov    %rax,%rdi
    8583:	e8 78 a9 ff ff       	callq  2f00 <_Z12phFuncTaStopP12phFuncStruct@plt>
    8588:	b8 0a 00 00 00       	mov    $0xa,%eax
    858d:	eb 05                	jmp    8594 <_Z12phFuncTaSendP12phFuncStructPKcz+0x3da>
    858f:	b8 00 00 00 00       	mov    $0x0,%eax
    8594:	48 81 c4 e8 40 00 00 	add    $0x40e8,%rsp
    859b:	5b                   	pop    %rbx
    859c:	5d                   	pop    %rbp
    859d:	c3                   	retq   

000000000000859e <_Z15phFuncTaReceiveP12phFuncStructiPKcz>:
    859e:	55                   	push   %rbp
    859f:	48 89 e5             	mov    %rsp,%rbp
    85a2:	48 81 ec 30 01 00 00 	sub    $0x130,%rsp
    85a9:	48 89 bd e8 fe ff ff 	mov    %rdi,-0x118(%rbp)
    85b0:	89 b5 e4 fe ff ff    	mov    %esi,-0x11c(%rbp)
    85b6:	48 89 8d 68 ff ff ff 	mov    %rcx,-0x98(%rbp)
    85bd:	4c 89 85 70 ff ff ff 	mov    %r8,-0x90(%rbp)
    85c4:	4c 89 8d 78 ff ff ff 	mov    %r9,-0x88(%rbp)
    85cb:	84 c0                	test   %al,%al
    85cd:	74 20                	je     85ef <_Z15phFuncTaReceiveP12phFuncStructiPKcz+0x51>
    85cf:	0f 29 45 80          	movaps %xmm0,-0x80(%rbp)
    85d3:	0f 29 4d 90          	movaps %xmm1,-0x70(%rbp)
    85d7:	0f 29 55 a0          	movaps %xmm2,-0x60(%rbp)
    85db:	0f 29 5d b0          	movaps %xmm3,-0x50(%rbp)
    85df:	0f 29 65 c0          	movaps %xmm4,-0x40(%rbp)
    85e3:	0f 29 6d d0          	movaps %xmm5,-0x30(%rbp)
    85e7:	0f 29 75 e0          	movaps %xmm6,-0x20(%rbp)
    85eb:	0f 29 7d f0          	movaps %xmm7,-0x10(%rbp)
    85ef:	48 89 95 d8 fe ff ff 	mov    %rdx,-0x128(%rbp)
    85f6:	c7 85 4c ff ff ff 00 	movl   $0x0,-0xb4(%rbp)
    85fd:	00 00 00 
    8600:	48 c7 85 00 ff ff ff 	movq   $0x0,-0x100(%rbp)
    8607:	00 00 00 00 
    860b:	c7 85 fc fe ff ff 00 	movl   $0x0,-0x104(%rbp)
    8612:	00 00 00 
    8615:	c7 85 48 ff ff ff 00 	movl   $0x0,-0xb8(%rbp)
    861c:	00 00 00 
    861f:	48 c7 85 40 ff ff ff 	movq   $0x0,-0xc0(%rbp)
    8626:	00 00 00 00 
    862a:	48 c7 85 30 ff ff ff 	movq   $0x0,-0xd0(%rbp)
    8631:	00 00 00 00 
    8635:	c7 85 2c ff ff ff 00 	movl   $0x0,-0xd4(%rbp)
    863c:	00 00 00 
    863f:	48 8b 85 e8 fe ff ff 	mov    -0x118(%rbp),%rax
    8646:	48 8b 80 70 40 00 00 	mov    0x4070(%rax),%rax
    864d:	8b 50 08             	mov    0x8(%rax),%edx
    8650:	83 c2 01             	add    $0x1,%edx
    8653:	89 50 08             	mov    %edx,0x8(%rax)
    8656:	48 8b 85 e8 fe ff ff 	mov    -0x118(%rbp),%rax
    865d:	48 8b 80 70 40 00 00 	mov    0x4070(%rax),%rax
    8664:	8b 50 0c             	mov    0xc(%rax),%edx
    8667:	48 8b 85 e8 fe ff ff 	mov    -0x118(%rbp),%rax
    866e:	48 8b 80 70 40 00 00 	mov    0x4070(%rax),%rax
    8675:	8b 40 08             	mov    0x8(%rax),%eax
    8678:	39 c2                	cmp    %eax,%edx
    867a:	7c 2e                	jl     86aa <_Z15phFuncTaReceiveP12phFuncStructiPKcz+0x10c>
    867c:	48 8b 85 e8 fe ff ff 	mov    -0x118(%rbp),%rax
    8683:	48 8b 40 10          	mov    0x10(%rax),%rax
    8687:	48 8d 15 f2 37 00 00 	lea    0x37f2(%rip),%rdx        # be80 <_ZZ15privateGetStartP12phFuncStructE12__FUNCTION__+0x720>
    868e:	be 07 00 00 00       	mov    $0x7,%esi
    8693:	48 89 c7             	mov    %rax,%rdi
    8696:	b8 00 00 00 00       	mov    $0x0,%eax
    869b:	e8 50 a5 ff ff       	callq  2bf0 <_Z16phLogFuncMessageP11phLogStruct11phLogType_tPKcz@plt>
    86a0:	b8 00 00 00 00       	mov    $0x0,%eax
    86a5:	e9 7a 06 00 00       	jmpq   8d24 <_Z15phFuncTaReceiveP12phFuncStructiPKcz+0x786>
    86aa:	48 8b 85 e8 fe ff ff 	mov    -0x118(%rbp),%rax
    86b1:	48 8b 50 48          	mov    0x48(%rax),%rdx
    86b5:	48 8b 85 e8 fe ff ff 	mov    -0x118(%rbp),%rax
    86bc:	48 8b 40 10          	mov    0x10(%rax),%rax
    86c0:	48 89 d1             	mov    %rdx,%rcx
    86c3:	48 8d 15 f6 37 00 00 	lea    0x37f6(%rip),%rdx        # bec0 <_ZZ15privateGetStartP12phFuncStructE12__FUNCTION__+0x760>
    86ca:	be 06 00 00 00       	mov    $0x6,%esi
    86cf:	48 89 c7             	mov    %rax,%rdi
    86d2:	b8 00 00 00 00       	mov    $0x0,%eax
    86d7:	e8 14 a5 ff ff       	callq  2bf0 <_Z16phLogFuncMessageP11phLogStruct11phLogType_tPKcz@plt>
    86dc:	48 8b 85 e8 fe ff ff 	mov    -0x118(%rbp),%rax
    86e3:	8b 80 78 40 00 00    	mov    0x4078(%rax),%eax
    86e9:	83 f8 02             	cmp    $0x2,%eax
    86ec:	75 37                	jne    8725 <_Z15phFuncTaReceiveP12phFuncStructiPKcz+0x187>
    86ee:	48 8b 85 e8 fe ff ff 	mov    -0x118(%rbp),%rax
    86f5:	48 8b 48 48          	mov    0x48(%rax),%rcx
    86f9:	48 8b 85 e8 fe ff ff 	mov    -0x118(%rbp),%rax
    8700:	48 8b 40 20          	mov    0x20(%rax),%rax
    8704:	48 8d 95 fc fe ff ff 	lea    -0x104(%rbp),%rdx
    870b:	48 8d b5 00 ff ff ff 	lea    -0x100(%rbp),%rsi
    8712:	48 89 c7             	mov    %rax,%rdi
    8715:	e8 36 a6 ff ff       	callq  2d50 <_Z16phComGpibReceiveP11phComStructPPKcPil@plt>
    871a:	89 85 4c ff ff ff    	mov    %eax,-0xb4(%rbp)
    8720:	e9 9c 00 00 00       	jmpq   87c1 <_Z15phFuncTaReceiveP12phFuncStructiPKcz+0x223>
    8725:	48 8b 85 e8 fe ff ff 	mov    -0x118(%rbp),%rax
    872c:	8b 80 78 40 00 00    	mov    0x4078(%rax),%eax
    8732:	83 f8 04             	cmp    $0x4,%eax
    8735:	74 12                	je     8749 <_Z15phFuncTaReceiveP12phFuncStructiPKcz+0x1ab>
    8737:	48 8b 85 e8 fe ff ff 	mov    -0x118(%rbp),%rax
    873e:	8b 80 78 40 00 00    	mov    0x4078(%rax),%eax
    8744:	83 f8 05             	cmp    $0x5,%eax
    8747:	75 34                	jne    877d <_Z15phFuncTaReceiveP12phFuncStructiPKcz+0x1df>
    8749:	48 8b 85 e8 fe ff ff 	mov    -0x118(%rbp),%rax
    8750:	48 8b 48 48          	mov    0x48(%rax),%rcx
    8754:	48 8b 85 e8 fe ff ff 	mov    -0x118(%rbp),%rax
    875b:	48 8b 40 20          	mov    0x20(%rax),%rax
    875f:	48 8d 95 fc fe ff ff 	lea    -0x104(%rbp),%rdx
    8766:	48 8d b5 00 ff ff ff 	lea    -0x100(%rbp),%rsi
    876d:	48 89 c7             	mov    %rax,%rdi
    8770:	e8 bb a7 ff ff       	callq  2f30 <_Z15phComLanReceiveP11phComStructPPKcPil@plt>
    8775:	89 85 4c ff ff ff    	mov    %eax,-0xb4(%rbp)
    877b:	eb 44                	jmp    87c1 <_Z15phFuncTaReceiveP12phFuncStructiPKcz+0x223>
    877d:	48 8b 85 e8 fe ff ff 	mov    -0x118(%rbp),%rax
    8784:	8b 80 78 40 00 00    	mov    0x4078(%rax),%eax
    878a:	83 f8 03             	cmp    $0x3,%eax
    878d:	75 32                	jne    87c1 <_Z15phFuncTaReceiveP12phFuncStructiPKcz+0x223>
    878f:	48 8b 85 e8 fe ff ff 	mov    -0x118(%rbp),%rax
    8796:	48 8b 48 48          	mov    0x48(%rax),%rcx
    879a:	48 8b 85 e8 fe ff ff 	mov    -0x118(%rbp),%rax
    87a1:	48 8b 40 20          	mov    0x20(%rax),%rax
    87a5:	48 8d 95 fc fe ff ff 	lea    -0x104(%rbp),%rdx
    87ac:	48 8d b5 00 ff ff ff 	lea    -0x100(%rbp),%rsi
    87b3:	48 89 c7             	mov    %rax,%rdi
    87b6:	e8 05 a5 ff ff       	callq  2cc0 <_Z17phComRs232ReceiveP11phComStructPPKcPil@plt>
    87bb:	89 85 4c ff ff ff    	mov    %eax,-0xb4(%rbp)
    87c1:	8b 85 4c ff ff ff    	mov    -0xb4(%rbp),%eax
    87c7:	85 c0                	test   %eax,%eax
    87c9:	74 0e                	je     87d9 <_Z15phFuncTaReceiveP12phFuncStructiPKcz+0x23b>
    87cb:	83 f8 02             	cmp    $0x2,%eax
    87ce:	0f 84 2e 04 00 00    	je     8c02 <_Z15phFuncTaReceiveP12phFuncStructiPKcz+0x664>
    87d4:	e9 5c 04 00 00       	jmpq   8c35 <_Z15phFuncTaReceiveP12phFuncStructiPKcz+0x697>
    87d9:	48 8b 85 e8 fe ff ff 	mov    -0x118(%rbp),%rax
    87e0:	48 8b 80 70 40 00 00 	mov    0x4070(%rax),%rax
    87e7:	8b 50 0c             	mov    0xc(%rax),%edx
    87ea:	83 c2 01             	add    $0x1,%edx
    87ed:	89 50 0c             	mov    %edx,0xc(%rax)
    87f0:	48 8b 95 00 ff ff ff 	mov    -0x100(%rbp),%rdx
    87f7:	48 8b 85 e8 fe ff ff 	mov    -0x118(%rbp),%rax
    87fe:	48 8b 40 10          	mov    0x10(%rax),%rax
    8802:	48 89 d1             	mov    %rdx,%rcx
    8805:	48 8d 15 ea 36 00 00 	lea    0x36ea(%rip),%rdx        # bef6 <_ZZ15privateGetStartP12phFuncStructE12__FUNCTION__+0x796>
    880c:	be 06 00 00 00       	mov    $0x6,%esi
    8811:	48 89 c7             	mov    %rax,%rdi
    8814:	b8 00 00 00 00       	mov    $0x0,%eax
    8819:	e8 d2 a3 ff ff       	callq  2bf0 <_Z16phLogFuncMessageP11phLogStruct11phLogType_tPKcz@plt>
    881e:	48 8b 85 d8 fe ff ff 	mov    -0x128(%rbp),%rax
    8825:	48 8d 35 e6 36 00 00 	lea    0x36e6(%rip),%rsi        # bf12 <_ZZ15privateGetStartP12phFuncStructE12__FUNCTION__+0x7b2>
    882c:	48 89 c7             	mov    %rax,%rdi
    882f:	e8 dc a6 ff ff       	callq  2f10 <strcmp@plt>
    8834:	85 c0                	test   %eax,%eax
    8836:	0f 85 1f 01 00 00    	jne    895b <_Z15phFuncTaReceiveP12phFuncStructiPKcz+0x3bd>
    883c:	48 8b 85 00 ff ff ff 	mov    -0x100(%rbp),%rax
    8843:	48 89 85 40 ff ff ff 	mov    %rax,-0xc0(%rbp)
    884a:	48 83 bd 40 ff ff ff 	cmpq   $0x0,-0xc0(%rbp)
    8851:	00 
    8852:	0f 84 03 01 00 00    	je     895b <_Z15phFuncTaReceiveP12phFuncStructiPKcz+0x3bd>
    8858:	eb 08                	jmp    8862 <_Z15phFuncTaReceiveP12phFuncStructiPKcz+0x2c4>
    885a:	48 83 85 40 ff ff ff 	addq   $0x1,-0xc0(%rbp)
    8861:	01 
    8862:	48 8b 85 40 ff ff ff 	mov    -0xc0(%rbp),%rax
    8869:	0f b6 00             	movzbl (%rax),%eax
    886c:	84 c0                	test   %al,%al
    886e:	74 18                	je     8888 <_Z15phFuncTaReceiveP12phFuncStructiPKcz+0x2ea>
    8870:	48 8b 85 40 ff ff ff 	mov    -0xc0(%rbp),%rax
    8877:	0f b6 00             	movzbl (%rax),%eax
    887a:	0f be c0             	movsbl %al,%eax
    887d:	89 c7                	mov    %eax,%edi
    887f:	e8 2c a4 ff ff       	callq  2cb0 <isgraph@plt>
    8884:	85 c0                	test   %eax,%eax
    8886:	74 d2                	je     885a <_Z15phFuncTaReceiveP12phFuncStructiPKcz+0x2bc>
    8888:	48 8b 85 40 ff ff ff 	mov    -0xc0(%rbp),%rax
    888f:	0f b6 00             	movzbl (%rax),%eax
    8892:	84 c0                	test   %al,%al
    8894:	0f 85 c1 00 00 00    	jne    895b <_Z15phFuncTaReceiveP12phFuncStructiPKcz+0x3bd>
    889a:	c7 85 08 ff ff ff 18 	movl   $0x18,-0xf8(%rbp)
    88a1:	00 00 00 
    88a4:	c7 85 0c ff ff ff 30 	movl   $0x30,-0xf4(%rbp)
    88ab:	00 00 00 
    88ae:	48 8d 45 10          	lea    0x10(%rbp),%rax
    88b2:	48 89 85 10 ff ff ff 	mov    %rax,-0xf0(%rbp)
    88b9:	48 8d 85 50 ff ff ff 	lea    -0xb0(%rbp),%rax
    88c0:	48 89 85 18 ff ff ff 	mov    %rax,-0xe8(%rbp)
    88c7:	8b 85 08 ff ff ff    	mov    -0xf8(%rbp),%eax
    88cd:	83 f8 30             	cmp    $0x30,%eax
    88d0:	73 23                	jae    88f5 <_Z15phFuncTaReceiveP12phFuncStructiPKcz+0x357>
    88d2:	48 8b 95 18 ff ff ff 	mov    -0xe8(%rbp),%rdx
    88d9:	8b 85 08 ff ff ff    	mov    -0xf8(%rbp),%eax
    88df:	89 c0                	mov    %eax,%eax
    88e1:	48 01 d0             	add    %rdx,%rax
    88e4:	8b 95 08 ff ff ff    	mov    -0xf8(%rbp),%edx
    88ea:	83 c2 08             	add    $0x8,%edx
    88ed:	89 95 08 ff ff ff    	mov    %edx,-0xf8(%rbp)
    88f3:	eb 15                	jmp    890a <_Z15phFuncTaReceiveP12phFuncStructiPKcz+0x36c>
    88f5:	48 8b 95 10 ff ff ff 	mov    -0xf0(%rbp),%rdx
    88fc:	48 89 d0             	mov    %rdx,%rax
    88ff:	48 83 c2 08          	add    $0x8,%rdx
    8903:	48 89 95 10 ff ff ff 	mov    %rdx,-0xf0(%rbp)
    890a:	48 8b 00             	mov    (%rax),%rax
    890d:	48 89 85 30 ff ff ff 	mov    %rax,-0xd0(%rbp)
    8914:	48 8b 85 30 ff ff ff 	mov    -0xd0(%rbp),%rax
    891b:	c6 00 00             	movb   $0x0,(%rax)
    891e:	48 8b 95 00 ff ff ff 	mov    -0x100(%rbp),%rdx
    8925:	48 8b 85 e8 fe ff ff 	mov    -0x118(%rbp),%rax
    892c:	48 8b 40 10          	mov    0x10(%rax),%rax
    8930:	48 89 d1             	mov    %rdx,%rcx
    8933:	48 8d 15 de 35 00 00 	lea    0x35de(%rip),%rdx        # bf18 <_ZZ15privateGetStartP12phFuncStructE12__FUNCTION__+0x7b8>
    893a:	be 06 00 00 00       	mov    $0x6,%esi
    893f:	48 89 c7             	mov    %rax,%rdi
    8942:	b8 00 00 00 00       	mov    $0x0,%eax
    8947:	e8 a4 a2 ff ff       	callq  2bf0 <_Z16phLogFuncMessageP11phLogStruct11phLogType_tPKcz@plt>
    894c:	c7 85 48 ff ff ff 0c 	movl   $0xc,-0xb8(%rbp)
    8953:	00 00 00 
    8956:	e9 c3 03 00 00       	jmpq   8d1e <_Z15phFuncTaReceiveP12phFuncStructiPKcz+0x780>
    895b:	48 8b 85 d8 fe ff ff 	mov    -0x128(%rbp),%rax
    8962:	48 8d 35 a9 35 00 00 	lea    0x35a9(%rip),%rsi        # bf12 <_ZZ15privateGetStartP12phFuncStructE12__FUNCTION__+0x7b2>
    8969:	48 89 c7             	mov    %rax,%rdi
    896c:	e8 9f a5 ff ff       	callq  2f10 <strcmp@plt>
    8971:	85 c0                	test   %eax,%eax
    8973:	0f 85 ac 01 00 00    	jne    8b25 <_Z15phFuncTaReceiveP12phFuncStructiPKcz+0x587>
    8979:	c7 85 08 ff ff ff 18 	movl   $0x18,-0xf8(%rbp)
    8980:	00 00 00 
    8983:	c7 85 0c ff ff ff 30 	movl   $0x30,-0xf4(%rbp)
    898a:	00 00 00 
    898d:	48 8d 45 10          	lea    0x10(%rbp),%rax
    8991:	48 89 85 10 ff ff ff 	mov    %rax,-0xf0(%rbp)
    8998:	48 8d 85 50 ff ff ff 	lea    -0xb0(%rbp),%rax
    899f:	48 89 85 18 ff ff ff 	mov    %rax,-0xe8(%rbp)
    89a6:	8b 85 08 ff ff ff    	mov    -0xf8(%rbp),%eax
    89ac:	83 f8 30             	cmp    $0x30,%eax
    89af:	73 23                	jae    89d4 <_Z15phFuncTaReceiveP12phFuncStructiPKcz+0x436>
    89b1:	48 8b 95 18 ff ff ff 	mov    -0xe8(%rbp),%rdx
    89b8:	8b 85 08 ff ff ff    	mov    -0xf8(%rbp),%eax
    89be:	89 c0                	mov    %eax,%eax
    89c0:	48 01 d0             	add    %rdx,%rax
    89c3:	8b 95 08 ff ff ff    	mov    -0xf8(%rbp),%edx
    89c9:	83 c2 08             	add    $0x8,%edx
    89cc:	89 95 08 ff ff ff    	mov    %edx,-0xf8(%rbp)
    89d2:	eb 15                	jmp    89e9 <_Z15phFuncTaReceiveP12phFuncStructiPKcz+0x44b>
    89d4:	48 8b 95 10 ff ff ff 	mov    -0xf0(%rbp),%rdx
    89db:	48 89 d0             	mov    %rdx,%rax
    89de:	48 83 c2 08          	add    $0x8,%rdx
    89e2:	48 89 95 10 ff ff ff 	mov    %rdx,-0xf0(%rbp)
    89e9:	48 8b 00             	mov    (%rax),%rax
    89ec:	48 89 85 38 ff ff ff 	mov    %rax,-0xc8(%rbp)
    89f3:	48 8b 85 e8 fe ff ff 	mov    -0x118(%rbp),%rax
    89fa:	48 8b 40 40          	mov    0x40(%rax),%rax
    89fe:	ba 03 00 00 00       	mov    $0x3,%edx
    8a03:	48 8d 35 43 35 00 00 	lea    0x3543(%rip),%rsi        # bf4d <_ZZ15privateGetStartP12phFuncStructE12__FUNCTION__+0x7ed>
    8a0a:	48 89 c7             	mov    %rax,%rdi
    8a0d:	e8 7e a2 ff ff       	callq  2c90 <strncmp@plt>
    8a12:	85 c0                	test   %eax,%eax
    8a14:	0f 85 af 00 00 00    	jne    8ac9 <_Z15phFuncTaReceiveP12phFuncStructiPKcz+0x52b>
    8a1a:	48 c7 85 20 ff ff ff 	movq   $0x0,-0xe0(%rbp)
    8a21:	00 00 00 00 
    8a25:	48 8b 85 00 ff ff ff 	mov    -0x100(%rbp),%rax
    8a2c:	48 89 85 20 ff ff ff 	mov    %rax,-0xe0(%rbp)
    8a33:	48 8b 85 20 ff ff ff 	mov    -0xe0(%rbp),%rax
    8a3a:	0f b6 00             	movzbl (%rax),%eax
    8a3d:	84 c0                	test   %al,%al
    8a3f:	74 26                	je     8a67 <_Z15phFuncTaReceiveP12phFuncStructiPKcz+0x4c9>
    8a41:	48 8b 85 20 ff ff ff 	mov    -0xe0(%rbp),%rax
    8a48:	0f b6 00             	movzbl (%rax),%eax
    8a4b:	3c 0d                	cmp    $0xd,%al
    8a4d:	74 0e                	je     8a5d <_Z15phFuncTaReceiveP12phFuncStructiPKcz+0x4bf>
    8a4f:	48 8b 85 20 ff ff ff 	mov    -0xe0(%rbp),%rax
    8a56:	0f b6 00             	movzbl (%rax),%eax
    8a59:	3c 0a                	cmp    $0xa,%al
    8a5b:	75 0a                	jne    8a67 <_Z15phFuncTaReceiveP12phFuncStructiPKcz+0x4c9>
    8a5d:	48 8b 85 20 ff ff ff 	mov    -0xe0(%rbp),%rax
    8a64:	c6 00 20             	movb   $0x20,(%rax)
    8a67:	48 8b 85 20 ff ff ff 	mov    -0xe0(%rbp),%rax
    8a6e:	48 89 c7             	mov    %rax,%rdi
    8a71:	e8 aa a2 ff ff       	callq  2d20 <strlen@plt>
    8a76:	48 83 f8 01          	cmp    $0x1,%rax
    8a7a:	76 32                	jbe    8aae <_Z15phFuncTaReceiveP12phFuncStructiPKcz+0x510>
    8a7c:	48 8b 85 20 ff ff ff 	mov    -0xe0(%rbp),%rax
    8a83:	48 83 c0 01          	add    $0x1,%rax
    8a87:	0f b6 00             	movzbl (%rax),%eax
    8a8a:	3c 0d                	cmp    $0xd,%al
    8a8c:	74 12                	je     8aa0 <_Z15phFuncTaReceiveP12phFuncStructiPKcz+0x502>
    8a8e:	48 8b 85 20 ff ff ff 	mov    -0xe0(%rbp),%rax
    8a95:	48 83 c0 01          	add    $0x1,%rax
    8a99:	0f b6 00             	movzbl (%rax),%eax
    8a9c:	3c 0a                	cmp    $0xa,%al
    8a9e:	75 0e                	jne    8aae <_Z15phFuncTaReceiveP12phFuncStructiPKcz+0x510>
    8aa0:	48 8b 85 20 ff ff ff 	mov    -0xe0(%rbp),%rax
    8aa7:	48 83 c0 01          	add    $0x1,%rax
    8aab:	c6 00 20             	movb   $0x20,(%rax)
    8aae:	48 8b 95 20 ff ff ff 	mov    -0xe0(%rbp),%rdx
    8ab5:	48 8b 85 38 ff ff ff 	mov    -0xc8(%rbp),%rax
    8abc:	48 89 d6             	mov    %rdx,%rsi
    8abf:	48 89 c7             	mov    %rax,%rdi
    8ac2:	e8 59 a4 ff ff       	callq  2f20 <strcpy@plt>
    8ac7:	eb 49                	jmp    8b12 <_Z15phFuncTaReceiveP12phFuncStructiPKcz+0x574>
    8ac9:	48 8b 95 00 ff ff ff 	mov    -0x100(%rbp),%rdx
    8ad0:	48 8b 85 38 ff ff ff 	mov    -0xc8(%rbp),%rax
    8ad7:	48 89 d6             	mov    %rdx,%rsi
    8ada:	48 89 c7             	mov    %rax,%rdi
    8add:	e8 3e a4 ff ff       	callq  2f20 <strcpy@plt>
    8ae2:	eb 2e                	jmp    8b12 <_Z15phFuncTaReceiveP12phFuncStructiPKcz+0x574>
    8ae4:	48 8b 85 38 ff ff ff 	mov    -0xc8(%rbp),%rax
    8aeb:	0f b6 00             	movzbl (%rax),%eax
    8aee:	3c 0d                	cmp    $0xd,%al
    8af0:	74 0e                	je     8b00 <_Z15phFuncTaReceiveP12phFuncStructiPKcz+0x562>
    8af2:	48 8b 85 38 ff ff ff 	mov    -0xc8(%rbp),%rax
    8af9:	0f b6 00             	movzbl (%rax),%eax
    8afc:	3c 0a                	cmp    $0xa,%al
    8afe:	75 0a                	jne    8b0a <_Z15phFuncTaReceiveP12phFuncStructiPKcz+0x56c>
    8b00:	48 8b 85 38 ff ff ff 	mov    -0xc8(%rbp),%rax
    8b07:	c6 00 00             	movb   $0x0,(%rax)
    8b0a:	48 83 85 38 ff ff ff 	addq   $0x1,-0xc8(%rbp)
    8b11:	01 
    8b12:	48 8b 85 38 ff ff ff 	mov    -0xc8(%rbp),%rax
    8b19:	0f b6 00             	movzbl (%rax),%eax
    8b1c:	84 c0                	test   %al,%al
    8b1e:	75 c4                	jne    8ae4 <_Z15phFuncTaReceiveP12phFuncStructiPKcz+0x546>
    8b20:	e9 d8 00 00 00       	jmpq   8bfd <_Z15phFuncTaReceiveP12phFuncStructiPKcz+0x65f>
    8b25:	c7 85 08 ff ff ff 18 	movl   $0x18,-0xf8(%rbp)
    8b2c:	00 00 00 
    8b2f:	c7 85 0c ff ff ff 30 	movl   $0x30,-0xf4(%rbp)
    8b36:	00 00 00 
    8b39:	48 8d 45 10          	lea    0x10(%rbp),%rax
    8b3d:	48 89 85 10 ff ff ff 	mov    %rax,-0xf0(%rbp)
    8b44:	48 8d 85 50 ff ff ff 	lea    -0xb0(%rbp),%rax
    8b4b:	48 89 85 18 ff ff ff 	mov    %rax,-0xe8(%rbp)
    8b52:	48 8b 85 00 ff ff ff 	mov    -0x100(%rbp),%rax
    8b59:	48 8d 95 08 ff ff ff 	lea    -0xf8(%rbp),%rdx
    8b60:	48 8b 8d d8 fe ff ff 	mov    -0x128(%rbp),%rcx
    8b67:	48 89 ce             	mov    %rcx,%rsi
    8b6a:	48 89 c7             	mov    %rax,%rdi
    8b6d:	e8 be a0 ff ff       	callq  2c30 <vsscanf@plt>
    8b72:	89 85 2c ff ff ff    	mov    %eax,-0xd4(%rbp)
    8b78:	8b 85 2c ff ff ff    	mov    -0xd4(%rbp),%eax
    8b7e:	3b 85 e4 fe ff ff    	cmp    -0x11c(%rbp),%eax
    8b84:	74 77                	je     8bfd <_Z15phFuncTaReceiveP12phFuncStructiPKcz+0x65f>
    8b86:	48 8b 8d 00 ff ff ff 	mov    -0x100(%rbp),%rcx
    8b8d:	48 8b 85 e8 fe ff ff 	mov    -0x118(%rbp),%rax
    8b94:	48 8b 40 10          	mov    0x10(%rax),%rax
    8b98:	48 8b 95 d8 fe ff ff 	mov    -0x128(%rbp),%rdx
    8b9f:	49 89 c8             	mov    %rcx,%r8
    8ba2:	48 89 d1             	mov    %rdx,%rcx
    8ba5:	48 8d 15 ac 33 00 00 	lea    0x33ac(%rip),%rdx        # bf58 <_ZZ15privateGetStartP12phFuncStructE12__FUNCTION__+0x7f8>
    8bac:	be 01 00 00 00       	mov    $0x1,%esi
    8bb1:	48 89 c7             	mov    %rax,%rdi
    8bb4:	b8 00 00 00 00       	mov    $0x0,%eax
    8bb9:	e8 32 a0 ff ff       	callq  2bf0 <_Z16phLogFuncMessageP11phLogStruct11phLogType_tPKcz@plt>
    8bbe:	48 8b 85 e8 fe ff ff 	mov    -0x118(%rbp),%rax
    8bc5:	48 8b 40 10          	mov    0x10(%rax),%rax
    8bc9:	8b 8d e4 fe ff ff    	mov    -0x11c(%rbp),%ecx
    8bcf:	8b 95 2c ff ff ff    	mov    -0xd4(%rbp),%edx
    8bd5:	41 89 c8             	mov    %ecx,%r8d
    8bd8:	89 d1                	mov    %edx,%ecx
    8bda:	48 8d 15 c7 33 00 00 	lea    0x33c7(%rip),%rdx        # bfa8 <_ZZ15privateGetStartP12phFuncStructE12__FUNCTION__+0x848>
    8be1:	be 01 00 00 00       	mov    $0x1,%esi
    8be6:	48 89 c7             	mov    %rax,%rdi
    8be9:	b8 00 00 00 00       	mov    $0x0,%eax
    8bee:	e8 fd 9f ff ff       	callq  2bf0 <_Z16phLogFuncMessageP11phLogStruct11phLogType_tPKcz@plt>
    8bf3:	c7 85 48 ff ff ff 0e 	movl   $0xe,-0xb8(%rbp)
    8bfa:	00 00 00 
    8bfd:	e9 1c 01 00 00       	jmpq   8d1e <_Z15phFuncTaReceiveP12phFuncStructiPKcz+0x780>
    8c02:	48 8b 85 e8 fe ff ff 	mov    -0x118(%rbp),%rax
    8c09:	48 8b 40 10          	mov    0x10(%rax),%rax
    8c0d:	48 8d 15 bc 33 00 00 	lea    0x33bc(%rip),%rdx        # bfd0 <_ZZ15privateGetStartP12phFuncStructE12__FUNCTION__+0x870>
    8c14:	be 02 00 00 00       	mov    $0x2,%esi
    8c19:	48 89 c7             	mov    %rax,%rdi
    8c1c:	b8 00 00 00 00       	mov    $0x0,%eax
    8c21:	e8 ca 9f ff ff       	callq  2bf0 <_Z16phLogFuncMessageP11phLogStruct11phLogType_tPKcz@plt>
    8c26:	c7 85 48 ff ff ff 0c 	movl   $0xc,-0xb8(%rbp)
    8c2d:	00 00 00 
    8c30:	e9 e9 00 00 00       	jmpq   8d1e <_Z15phFuncTaReceiveP12phFuncStructiPKcz+0x780>
    8c35:	48 8b 85 e8 fe ff ff 	mov    -0x118(%rbp),%rax
    8c3c:	8b 80 78 40 00 00    	mov    0x4078(%rax),%eax
    8c42:	83 f8 02             	cmp    $0x2,%eax
    8c45:	75 33                	jne    8c7a <_Z15phFuncTaReceiveP12phFuncStructiPKcz+0x6dc>
    8c47:	48 8b 85 e8 fe ff ff 	mov    -0x118(%rbp),%rax
    8c4e:	48 8b 40 10          	mov    0x10(%rax),%rax
    8c52:	48 8d 15 c9 31 00 00 	lea    0x31c9(%rip),%rdx        # be22 <_ZZ15privateGetStartP12phFuncStructE12__FUNCTION__+0x6c2>
    8c59:	be 01 00 00 00       	mov    $0x1,%esi
    8c5e:	48 89 c7             	mov    %rax,%rdi
    8c61:	b8 00 00 00 00       	mov    $0x0,%eax
    8c66:	e8 85 9f ff ff       	callq  2bf0 <_Z16phLogFuncMessageP11phLogStruct11phLogType_tPKcz@plt>
    8c6b:	c7 85 48 ff ff ff 08 	movl   $0x8,-0xb8(%rbp)
    8c72:	00 00 00 
    8c75:	e9 a3 00 00 00       	jmpq   8d1d <_Z15phFuncTaReceiveP12phFuncStructiPKcz+0x77f>
    8c7a:	48 8b 85 e8 fe ff ff 	mov    -0x118(%rbp),%rax
    8c81:	8b 80 78 40 00 00    	mov    0x4078(%rax),%eax
    8c87:	83 f8 04             	cmp    $0x4,%eax
    8c8a:	74 12                	je     8c9e <_Z15phFuncTaReceiveP12phFuncStructiPKcz+0x700>
    8c8c:	48 8b 85 e8 fe ff ff 	mov    -0x118(%rbp),%rax
    8c93:	8b 80 78 40 00 00    	mov    0x4078(%rax),%eax
    8c99:	83 f8 05             	cmp    $0x5,%eax
    8c9c:	75 30                	jne    8cce <_Z15phFuncTaReceiveP12phFuncStructiPKcz+0x730>
    8c9e:	48 8b 85 e8 fe ff ff 	mov    -0x118(%rbp),%rax
    8ca5:	48 8b 40 10          	mov    0x10(%rax),%rax
    8ca9:	48 8d 15 88 31 00 00 	lea    0x3188(%rip),%rdx        # be38 <_ZZ15privateGetStartP12phFuncStructE12__FUNCTION__+0x6d8>
    8cb0:	be 01 00 00 00       	mov    $0x1,%esi
    8cb5:	48 89 c7             	mov    %rax,%rdi
    8cb8:	b8 00 00 00 00       	mov    $0x0,%eax
    8cbd:	e8 2e 9f ff ff       	callq  2bf0 <_Z16phLogFuncMessageP11phLogStruct11phLogType_tPKcz@plt>
    8cc2:	c7 85 48 ff ff ff 09 	movl   $0x9,-0xb8(%rbp)
    8cc9:	00 00 00 
    8ccc:	eb 4f                	jmp    8d1d <_Z15phFuncTaReceiveP12phFuncStructiPKcz+0x77f>
    8cce:	48 8b 85 e8 fe ff ff 	mov    -0x118(%rbp),%rax
    8cd5:	8b 80 78 40 00 00    	mov    0x4078(%rax),%eax
    8cdb:	83 f8 03             	cmp    $0x3,%eax
    8cde:	75 3d                	jne    8d1d <_Z15phFuncTaReceiveP12phFuncStructiPKcz+0x77f>
    8ce0:	48 8b 85 e8 fe ff ff 	mov    -0x118(%rbp),%rax
    8ce7:	48 8b 40 10          	mov    0x10(%rax),%rax
    8ceb:	48 8d 15 5e 31 00 00 	lea    0x315e(%rip),%rdx        # be50 <_ZZ15privateGetStartP12phFuncStructE12__FUNCTION__+0x6f0>
    8cf2:	be 01 00 00 00       	mov    $0x1,%esi
    8cf7:	48 89 c7             	mov    %rax,%rdi
    8cfa:	b8 00 00 00 00       	mov    $0x0,%eax
    8cff:	e8 ec 9e ff ff       	callq  2bf0 <_Z16phLogFuncMessageP11phLogStruct11phLogType_tPKcz@plt>
    8d04:	48 8b 85 e8 fe ff ff 	mov    -0x118(%rbp),%rax
    8d0b:	48 89 c7             	mov    %rax,%rdi
    8d0e:	e8 ed a1 ff ff       	callq  2f00 <_Z12phFuncTaStopP12phFuncStruct@plt>
    8d13:	c7 85 48 ff ff ff 0a 	movl   $0xa,-0xb8(%rbp)
    8d1a:	00 00 00 
    8d1d:	90                   	nop
    8d1e:	8b 85 48 ff ff ff    	mov    -0xb8(%rbp),%eax
    8d24:	c9                   	leaveq 
    8d25:	c3                   	retq   

0000000000008d26 <_Z17phFuncTaClearGpibP12phFuncStruct>:
    8d26:	55                   	push   %rbp
    8d27:	48 89 e5             	mov    %rsp,%rbp
    8d2a:	48 83 ec 20          	sub    $0x20,%rsp
    8d2e:	48 89 7d e8          	mov    %rdi,-0x18(%rbp)
    8d32:	c7 45 fc 00 00 00 00 	movl   $0x0,-0x4(%rbp)
    8d39:	c7 45 f8 00 00 00 00 	movl   $0x0,-0x8(%rbp)
    8d40:	48 8b 45 e8          	mov    -0x18(%rbp),%rax
    8d44:	48 8b 80 70 40 00 00 	mov    0x4070(%rax),%rax
    8d4b:	8b 50 08             	mov    0x8(%rax),%edx
    8d4e:	83 c2 01             	add    $0x1,%edx
    8d51:	89 50 08             	mov    %edx,0x8(%rax)
    8d54:	48 8b 45 e8          	mov    -0x18(%rbp),%rax
    8d58:	48 8b 80 70 40 00 00 	mov    0x4070(%rax),%rax
    8d5f:	8b 50 0c             	mov    0xc(%rax),%edx
    8d62:	48 8b 45 e8          	mov    -0x18(%rbp),%rax
    8d66:	48 8b 80 70 40 00 00 	mov    0x4070(%rax),%rax
    8d6d:	8b 40 08             	mov    0x8(%rax),%eax
    8d70:	39 c2                	cmp    %eax,%edx
    8d72:	7c 2b                	jl     8d9f <_Z17phFuncTaClearGpibP12phFuncStruct+0x79>
    8d74:	48 8b 45 e8          	mov    -0x18(%rbp),%rax
    8d78:	48 8b 40 10          	mov    0x10(%rax),%rax
    8d7c:	48 8d 15 7d 32 00 00 	lea    0x327d(%rip),%rdx        # c000 <_ZZ15privateGetStartP12phFuncStructE12__FUNCTION__+0x8a0>
    8d83:	be 07 00 00 00       	mov    $0x7,%esi
    8d88:	48 89 c7             	mov    %rax,%rdi
    8d8b:	b8 00 00 00 00       	mov    $0x0,%eax
    8d90:	e8 5b 9e ff ff       	callq  2bf0 <_Z16phLogFuncMessageP11phLogStruct11phLogType_tPKcz@plt>
    8d95:	b8 00 00 00 00       	mov    $0x0,%eax
    8d9a:	e9 9c 00 00 00       	jmpq   8e3b <_Z17phFuncTaClearGpibP12phFuncStruct+0x115>
    8d9f:	48 8b 45 e8          	mov    -0x18(%rbp),%rax
    8da3:	48 8b 40 10          	mov    0x10(%rax),%rax
    8da7:	48 8d 15 82 32 00 00 	lea    0x3282(%rip),%rdx        # c030 <_ZZ15privateGetStartP12phFuncStructE12__FUNCTION__+0x8d0>
    8dae:	be 06 00 00 00       	mov    $0x6,%esi
    8db3:	48 89 c7             	mov    %rax,%rdi
    8db6:	b8 00 00 00 00       	mov    $0x0,%eax
    8dbb:	e8 30 9e ff ff       	callq  2bf0 <_Z16phLogFuncMessageP11phLogStruct11phLogType_tPKcz@plt>
    8dc0:	48 8b 45 e8          	mov    -0x18(%rbp),%rax
    8dc4:	48 8b 40 20          	mov    0x20(%rax),%rax
    8dc8:	48 89 c7             	mov    %rax,%rdi
    8dcb:	e8 10 9f ff ff       	callq  2ce0 <_Z14phComGpibClearP11phComStruct@plt>
    8dd0:	89 45 f8             	mov    %eax,-0x8(%rbp)
    8dd3:	83 7d f8 00          	cmpl   $0x0,-0x8(%rbp)
    8dd7:	75 37                	jne    8e10 <_Z17phFuncTaClearGpibP12phFuncStruct+0xea>
    8dd9:	48 8b 45 e8          	mov    -0x18(%rbp),%rax
    8ddd:	48 8b 80 70 40 00 00 	mov    0x4070(%rax),%rax
    8de4:	8b 50 0c             	mov    0xc(%rax),%edx
    8de7:	83 c2 01             	add    $0x1,%edx
    8dea:	89 50 0c             	mov    %edx,0xc(%rax)
    8ded:	48 8b 45 e8          	mov    -0x18(%rbp),%rax
    8df1:	48 8b 40 10          	mov    0x10(%rax),%rax
    8df5:	48 8d 15 5c 32 00 00 	lea    0x325c(%rip),%rdx        # c058 <_ZZ15privateGetStartP12phFuncStructE12__FUNCTION__+0x8f8>
    8dfc:	be 06 00 00 00       	mov    $0x6,%esi
    8e01:	48 89 c7             	mov    %rax,%rdi
    8e04:	b8 00 00 00 00       	mov    $0x0,%eax
    8e09:	e8 e2 9d ff ff       	callq  2bf0 <_Z16phLogFuncMessageP11phLogStruct11phLogType_tPKcz@plt>
    8e0e:	eb 28                	jmp    8e38 <_Z17phFuncTaClearGpibP12phFuncStruct+0x112>
    8e10:	48 8b 45 e8          	mov    -0x18(%rbp),%rax
    8e14:	48 8b 40 10          	mov    0x10(%rax),%rax
    8e18:	48 8d 15 61 32 00 00 	lea    0x3261(%rip),%rdx        # c080 <_ZZ15privateGetStartP12phFuncStructE12__FUNCTION__+0x920>
    8e1f:	be 01 00 00 00       	mov    $0x1,%esi
    8e24:	48 89 c7             	mov    %rax,%rdi
    8e27:	b8 00 00 00 00       	mov    $0x0,%eax
    8e2c:	e8 bf 9d ff ff       	callq  2bf0 <_Z16phLogFuncMessageP11phLogStruct11phLogType_tPKcz@plt>
    8e31:	c7 45 fc 0c 00 00 00 	movl   $0xc,-0x4(%rbp)
    8e38:	8b 45 fc             	mov    -0x4(%rbp),%eax
    8e3b:	c9                   	leaveq 
    8e3c:	c3                   	retq   

0000000000008e3d <_Z14callSRQHandlerP12phFuncStructiP13phFuncError_t>:
    8e3d:	55                   	push   %rbp
    8e3e:	48 89 e5             	mov    %rsp,%rbp
    8e41:	48 83 ec 30          	sub    $0x30,%rsp
    8e45:	48 89 7d e8          	mov    %rdi,-0x18(%rbp)
    8e49:	89 75 e4             	mov    %esi,-0x1c(%rbp)
    8e4c:	48 89 55 d8          	mov    %rdx,-0x28(%rbp)
    8e50:	c7 45 f4 00 00 00 00 	movl   $0x0,-0xc(%rbp)
    8e57:	48 8b 45 e8          	mov    -0x18(%rbp),%rax
    8e5b:	8b 80 78 40 00 00    	mov    0x4078(%rax),%eax
    8e61:	83 f8 04             	cmp    $0x4,%eax
    8e64:	75 07                	jne    8e6d <_Z14callSRQHandlerP12phFuncStructiP13phFuncError_t+0x30>
    8e66:	b8 00 00 00 00       	mov    $0x0,%eax
    8e6b:	eb 5f                	jmp    8ecc <_Z14callSRQHandlerP12phFuncStructiP13phFuncError_t+0x8f>
    8e6d:	48 8b 45 e8          	mov    -0x18(%rbp),%rax
    8e71:	48 8b 80 70 40 00 00 	mov    0x4070(%rax),%rax
    8e78:	48 8b 40 20          	mov    0x20(%rax),%rax
    8e7c:	48 89 45 f8          	mov    %rax,-0x8(%rbp)
    8e80:	eb 3a                	jmp    8ebc <_Z14callSRQHandlerP12phFuncStructiP13phFuncError_t+0x7f>
    8e82:	48 8b 45 f8          	mov    -0x8(%rbp),%rax
    8e86:	8b 00                	mov    (%rax),%eax
    8e88:	3b 45 e4             	cmp    -0x1c(%rbp),%eax
    8e8b:	75 23                	jne    8eb0 <_Z14callSRQHandlerP12phFuncStructiP13phFuncError_t+0x73>
    8e8d:	48 8b 45 f8          	mov    -0x8(%rbp),%rax
    8e91:	48 8b 40 08          	mov    0x8(%rax),%rax
    8e95:	8b 4d e4             	mov    -0x1c(%rbp),%ecx
    8e98:	48 8b 55 e8          	mov    -0x18(%rbp),%rdx
    8e9c:	89 ce                	mov    %ecx,%esi
    8e9e:	48 89 d7             	mov    %rdx,%rdi
    8ea1:	ff d0                	callq  *%rax
    8ea3:	48 8b 55 d8          	mov    -0x28(%rbp),%rdx
    8ea7:	89 02                	mov    %eax,(%rdx)
    8ea9:	c7 45 f4 01 00 00 00 	movl   $0x1,-0xc(%rbp)
    8eb0:	48 8b 45 f8          	mov    -0x8(%rbp),%rax
    8eb4:	48 8b 40 10          	mov    0x10(%rax),%rax
    8eb8:	48 89 45 f8          	mov    %rax,-0x8(%rbp)
    8ebc:	48 83 7d f8 00       	cmpq   $0x0,-0x8(%rbp)
    8ec1:	74 06                	je     8ec9 <_Z14callSRQHandlerP12phFuncStructiP13phFuncError_t+0x8c>
    8ec3:	83 7d f4 00          	cmpl   $0x0,-0xc(%rbp)
    8ec7:	74 b9                	je     8e82 <_Z14callSRQHandlerP12phFuncStructiP13phFuncError_t+0x45>
    8ec9:	8b 45 f4             	mov    -0xc(%rbp),%eax
    8ecc:	c9                   	leaveq 
    8ecd:	c3                   	retq   

0000000000008ece <_Z14phFuncTaGetSRQP12phFuncStructPiiz>:
    8ece:	55                   	push   %rbp
    8ecf:	48 89 e5             	mov    %rsp,%rbp
    8ed2:	48 81 ec 10 41 00 00 	sub    $0x4110,%rsp
    8ed9:	48 89 bd 08 bf ff ff 	mov    %rdi,-0x40f8(%rbp)
    8ee0:	48 89 b5 00 bf ff ff 	mov    %rsi,-0x4100(%rbp)
    8ee7:	48 89 8d 68 ff ff ff 	mov    %rcx,-0x98(%rbp)
    8eee:	4c 89 85 70 ff ff ff 	mov    %r8,-0x90(%rbp)
    8ef5:	4c 89 8d 78 ff ff ff 	mov    %r9,-0x88(%rbp)
    8efc:	84 c0                	test   %al,%al
    8efe:	74 20                	je     8f20 <_Z14phFuncTaGetSRQP12phFuncStructPiiz+0x52>
    8f00:	0f 29 45 80          	movaps %xmm0,-0x80(%rbp)
    8f04:	0f 29 4d 90          	movaps %xmm1,-0x70(%rbp)
    8f08:	0f 29 55 a0          	movaps %xmm2,-0x60(%rbp)
    8f0c:	0f 29 5d b0          	movaps %xmm3,-0x50(%rbp)
    8f10:	0f 29 65 c0          	movaps %xmm4,-0x40(%rbp)
    8f14:	0f 29 6d d0          	movaps %xmm5,-0x30(%rbp)
    8f18:	0f 29 75 e0          	movaps %xmm6,-0x20(%rbp)
    8f1c:	0f 29 7d f0          	movaps %xmm7,-0x10(%rbp)
    8f20:	89 95 fc be ff ff    	mov    %edx,-0x4104(%rbp)
    8f26:	c7 85 18 ff ff ff 00 	movl   $0x0,-0xe8(%rbp)
    8f2d:	00 00 00 
    8f30:	48 8b 85 08 bf ff ff 	mov    -0x40f8(%rbp),%rax
    8f37:	8b 80 78 40 00 00    	mov    0x4078(%rax),%eax
    8f3d:	83 f8 04             	cmp    $0x4,%eax
    8f40:	75 0a                	jne    8f4c <_Z14phFuncTaGetSRQP12phFuncStructPiiz+0x7e>
    8f42:	b8 00 00 00 00       	mov    $0x0,%eax
    8f47:	e9 b2 03 00 00       	jmpq   92fe <_Z14phFuncTaGetSRQP12phFuncStructPiiz+0x430>
    8f4c:	8b 85 fc be ff ff    	mov    -0x4104(%rbp),%eax
    8f52:	89 85 48 ff ff ff    	mov    %eax,-0xb8(%rbp)
    8f58:	48 8b 85 08 bf ff ff 	mov    -0x40f8(%rbp),%rax
    8f5f:	48 8b 80 70 40 00 00 	mov    0x4070(%rax),%rax
    8f66:	8b 50 08             	mov    0x8(%rax),%edx
    8f69:	83 c2 01             	add    $0x1,%edx
    8f6c:	89 50 08             	mov    %edx,0x8(%rax)
    8f6f:	48 8b 85 08 bf ff ff 	mov    -0x40f8(%rbp),%rax
    8f76:	48 8b 80 70 40 00 00 	mov    0x4070(%rax),%rax
    8f7d:	8b 50 0c             	mov    0xc(%rax),%edx
    8f80:	48 8b 85 08 bf ff ff 	mov    -0x40f8(%rbp),%rax
    8f87:	48 8b 80 70 40 00 00 	mov    0x4070(%rax),%rax
    8f8e:	8b 40 08             	mov    0x8(%rax),%eax
    8f91:	39 c2                	cmp    %eax,%edx
    8f93:	7c 2e                	jl     8fc3 <_Z14phFuncTaGetSRQP12phFuncStructPiiz+0xf5>
    8f95:	48 8b 85 08 bf ff ff 	mov    -0x40f8(%rbp),%rax
    8f9c:	48 8b 40 10          	mov    0x10(%rax),%rax
    8fa0:	48 8d 15 09 31 00 00 	lea    0x3109(%rip),%rdx        # c0b0 <_ZZ15privateGetStartP12phFuncStructE12__FUNCTION__+0x950>
    8fa7:	be 07 00 00 00       	mov    $0x7,%esi
    8fac:	48 89 c7             	mov    %rax,%rdi
    8faf:	b8 00 00 00 00       	mov    $0x0,%eax
    8fb4:	e8 37 9c ff ff       	callq  2bf0 <_Z16phLogFuncMessageP11phLogStruct11phLogType_tPKcz@plt>
    8fb9:	b8 00 00 00 00       	mov    $0x0,%eax
    8fbe:	e9 3b 03 00 00       	jmpq   92fe <_Z14phFuncTaGetSRQP12phFuncStructPiiz+0x430>
    8fc3:	48 8b 85 08 bf ff ff 	mov    -0x40f8(%rbp),%rax
    8fca:	48 8b 50 48          	mov    0x48(%rax),%rdx
    8fce:	48 8b 85 08 bf ff ff 	mov    -0x40f8(%rbp),%rax
    8fd5:	48 8b 40 10          	mov    0x10(%rax),%rax
    8fd9:	48 89 d1             	mov    %rdx,%rcx
    8fdc:	48 8d 15 0d 31 00 00 	lea    0x310d(%rip),%rdx        # c0f0 <_ZZ15privateGetStartP12phFuncStructE12__FUNCTION__+0x990>
    8fe3:	be 06 00 00 00       	mov    $0x6,%esi
    8fe8:	48 89 c7             	mov    %rax,%rdi
    8feb:	b8 00 00 00 00       	mov    $0x0,%eax
    8ff0:	e8 fb 9b ff ff       	callq  2bf0 <_Z16phLogFuncMessageP11phLogStruct11phLogType_tPKcz@plt>
    8ff5:	48 8b 85 08 bf ff ff 	mov    -0x40f8(%rbp),%rax
    8ffc:	48 8b 48 48          	mov    0x48(%rax),%rcx
    9000:	48 8b 85 08 bf ff ff 	mov    -0x40f8(%rbp),%rax
    9007:	48 8b 40 20          	mov    0x20(%rax),%rax
    900b:	48 8d 95 1c ff ff ff 	lea    -0xe4(%rbp),%rdx
    9012:	48 8d b5 20 ff ff ff 	lea    -0xe0(%rbp),%rsi
    9019:	48 89 c7             	mov    %rax,%rdi
    901c:	e8 bf 9f ff ff       	callq  2fe0 <_Z17phComGpibGetEventP11phComStructPP9gpibEventPil@plt>
    9021:	89 85 44 ff ff ff    	mov    %eax,-0xbc(%rbp)
    9027:	8b 85 44 ff ff ff    	mov    -0xbc(%rbp),%eax
    902d:	85 c0                	test   %eax,%eax
    902f:	74 0e                	je     903f <_Z14phFuncTaGetSRQP12phFuncStructPiiz+0x171>
    9031:	83 f8 02             	cmp    $0x2,%eax
    9034:	0f 84 5f 02 00 00    	je     9299 <_Z14phFuncTaGetSRQP12phFuncStructPiiz+0x3cb>
    903a:	e9 8a 02 00 00       	jmpq   92c9 <_Z14phFuncTaGetSRQP12phFuncStructPiiz+0x3fb>
    903f:	48 8b 85 20 ff ff ff 	mov    -0xe0(%rbp),%rax
    9046:	48 85 c0             	test   %rax,%rax
    9049:	0f 84 3e 02 00 00    	je     928d <_Z14phFuncTaGetSRQP12phFuncStructPiiz+0x3bf>
    904f:	48 8b 85 08 bf ff ff 	mov    -0x40f8(%rbp),%rax
    9056:	48 8b 80 70 40 00 00 	mov    0x4070(%rax),%rax
    905d:	8b 50 0c             	mov    0xc(%rax),%edx
    9060:	83 c2 01             	add    $0x1,%edx
    9063:	89 50 0c             	mov    %edx,0xc(%rax)
    9066:	48 8b 85 20 ff ff ff 	mov    -0xe0(%rbp),%rax
    906d:	8b 00                	mov    (%rax),%eax
    906f:	85 c0                	test   %eax,%eax
    9071:	0f 85 e5 01 00 00    	jne    925c <_Z14phFuncTaGetSRQP12phFuncStructPiiz+0x38e>
    9077:	48 8b 85 20 ff ff ff 	mov    -0xe0(%rbp),%rax
    907e:	0f b6 40 04          	movzbl 0x4(%rax),%eax
    9082:	0f b6 d0             	movzbl %al,%edx
    9085:	48 8b 85 00 bf ff ff 	mov    -0x4100(%rbp),%rax
    908c:	89 10                	mov    %edx,(%rax)
    908e:	48 8b 85 00 bf ff ff 	mov    -0x4100(%rbp),%rax
    9095:	8b 10                	mov    (%rax),%edx
    9097:	48 8b 85 08 bf ff ff 	mov    -0x40f8(%rbp),%rax
    909e:	48 8b 40 10          	mov    0x10(%rax),%rax
    90a2:	89 d1                	mov    %edx,%ecx
    90a4:	48 8d 15 7d 30 00 00 	lea    0x307d(%rip),%rdx        # c128 <_ZZ15privateGetStartP12phFuncStructE12__FUNCTION__+0x9c8>
    90ab:	be 06 00 00 00       	mov    $0x6,%esi
    90b0:	48 89 c7             	mov    %rax,%rdi
    90b3:	b8 00 00 00 00       	mov    $0x0,%eax
    90b8:	e8 33 9b ff ff       	callq  2bf0 <_Z16phLogFuncMessageP11phLogStruct11phLogType_tPKcz@plt>
    90bd:	c7 85 4c ff ff ff 00 	movl   $0x0,-0xb4(%rbp)
    90c4:	00 00 00 
    90c7:	83 bd 4c ff ff ff 00 	cmpl   $0x0,-0xb4(%rbp)
    90ce:	0f 85 01 01 00 00    	jne    91d5 <_Z14phFuncTaGetSRQP12phFuncStructPiiz+0x307>
    90d4:	83 bd 48 ff ff ff 00 	cmpl   $0x0,-0xb8(%rbp)
    90db:	0f 8e f4 00 00 00    	jle    91d5 <_Z14phFuncTaGetSRQP12phFuncStructPiiz+0x307>
    90e1:	c7 85 28 ff ff ff 18 	movl   $0x18,-0xd8(%rbp)
    90e8:	00 00 00 
    90eb:	c7 85 2c ff ff ff 30 	movl   $0x30,-0xd4(%rbp)
    90f2:	00 00 00 
    90f5:	48 8d 45 10          	lea    0x10(%rbp),%rax
    90f9:	48 89 85 30 ff ff ff 	mov    %rax,-0xd0(%rbp)
    9100:	48 8d 85 50 ff ff ff 	lea    -0xb0(%rbp),%rax
    9107:	48 89 85 38 ff ff ff 	mov    %rax,-0xc8(%rbp)
    910e:	c6 85 10 bf ff ff 00 	movb   $0x0,-0x40f0(%rbp)
    9115:	e9 a5 00 00 00       	jmpq   91bf <_Z14phFuncTaGetSRQP12phFuncStructPiiz+0x2f1>
    911a:	8b 85 28 ff ff ff    	mov    -0xd8(%rbp),%eax
    9120:	83 f8 30             	cmp    $0x30,%eax
    9123:	73 23                	jae    9148 <_Z14phFuncTaGetSRQP12phFuncStructPiiz+0x27a>
    9125:	48 8b 95 38 ff ff ff 	mov    -0xc8(%rbp),%rdx
    912c:	8b 85 28 ff ff ff    	mov    -0xd8(%rbp),%eax
    9132:	89 c0                	mov    %eax,%eax
    9134:	48 01 d0             	add    %rdx,%rax
    9137:	8b 95 28 ff ff ff    	mov    -0xd8(%rbp),%edx
    913d:	83 c2 08             	add    $0x8,%edx
    9140:	89 95 28 ff ff ff    	mov    %edx,-0xd8(%rbp)
    9146:	eb 15                	jmp    915d <_Z14phFuncTaGetSRQP12phFuncStructPiiz+0x28f>
    9148:	48 8b 95 30 ff ff ff 	mov    -0xd0(%rbp),%rdx
    914f:	48 89 d0             	mov    %rdx,%rax
    9152:	48 83 c2 08          	add    $0x8,%rdx
    9156:	48 89 95 30 ff ff ff 	mov    %rdx,-0xd0(%rbp)
    915d:	8b 00                	mov    (%rax),%eax
    915f:	89 85 40 ff ff ff    	mov    %eax,-0xc0(%rbp)
    9165:	48 8b 85 00 bf ff ff 	mov    -0x4100(%rbp),%rax
    916c:	8b 00                	mov    (%rax),%eax
    916e:	3b 85 40 ff ff ff    	cmp    -0xc0(%rbp),%eax
    9174:	75 0c                	jne    9182 <_Z14phFuncTaGetSRQP12phFuncStructPiiz+0x2b4>
    9176:	c7 85 4c ff ff ff 01 	movl   $0x1,-0xb4(%rbp)
    917d:	00 00 00 
    9180:	eb 36                	jmp    91b8 <_Z14phFuncTaGetSRQP12phFuncStructPiiz+0x2ea>
    9182:	48 8d 85 10 bf ff ff 	lea    -0x40f0(%rbp),%rax
    9189:	48 89 c7             	mov    %rax,%rdi
    918c:	e8 8f 9b ff ff       	callq  2d20 <strlen@plt>
    9191:	48 8d 95 10 bf ff ff 	lea    -0x40f0(%rbp),%rdx
    9198:	48 8d 0c 02          	lea    (%rdx,%rax,1),%rcx
    919c:	8b 85 40 ff ff ff    	mov    -0xc0(%rbp),%eax
    91a2:	89 c2                	mov    %eax,%edx
    91a4:	48 8d 35 9f 2f 00 00 	lea    0x2f9f(%rip),%rsi        # c14a <_ZZ15privateGetStartP12phFuncStructE12__FUNCTION__+0x9ea>
    91ab:	48 89 cf             	mov    %rcx,%rdi
    91ae:	b8 00 00 00 00       	mov    $0x0,%eax
    91b3:	e8 d8 9b ff ff       	callq  2d90 <sprintf@plt>
    91b8:	83 ad fc be ff ff 01 	subl   $0x1,-0x4104(%rbp)
    91bf:	83 bd 4c ff ff ff 00 	cmpl   $0x0,-0xb4(%rbp)
    91c6:	75 0d                	jne    91d5 <_Z14phFuncTaGetSRQP12phFuncStructPiiz+0x307>
    91c8:	83 bd fc be ff ff 00 	cmpl   $0x0,-0x4104(%rbp)
    91cf:	0f 8f 45 ff ff ff    	jg     911a <_Z14phFuncTaGetSRQP12phFuncStructPiiz+0x24c>
    91d5:	83 bd 4c ff ff ff 00 	cmpl   $0x0,-0xb4(%rbp)
    91dc:	75 27                	jne    9205 <_Z14phFuncTaGetSRQP12phFuncStructPiiz+0x337>
    91de:	48 8b 85 00 bf ff ff 	mov    -0x4100(%rbp),%rax
    91e5:	8b 08                	mov    (%rax),%ecx
    91e7:	48 8d 95 18 ff ff ff 	lea    -0xe8(%rbp),%rdx
    91ee:	48 8b 85 08 bf ff ff 	mov    -0x40f8(%rbp),%rax
    91f5:	89 ce                	mov    %ecx,%esi
    91f7:	48 89 c7             	mov    %rax,%rdi
    91fa:	e8 d1 9d ff ff       	callq  2fd0 <_Z14callSRQHandlerP12phFuncStructiP13phFuncError_t@plt>
    91ff:	89 85 4c ff ff ff    	mov    %eax,-0xb4(%rbp)
    9205:	83 bd 4c ff ff ff 00 	cmpl   $0x0,-0xb4(%rbp)
    920c:	75 4c                	jne    925a <_Z14phFuncTaGetSRQP12phFuncStructPiiz+0x38c>
    920e:	83 bd 48 ff ff ff 00 	cmpl   $0x0,-0xb8(%rbp)
    9215:	7e 43                	jle    925a <_Z14phFuncTaGetSRQP12phFuncStructPiiz+0x38c>
    9217:	48 8b 85 00 bf ff ff 	mov    -0x4100(%rbp),%rax
    921e:	8b 10                	mov    (%rax),%edx
    9220:	48 8b 85 08 bf ff ff 	mov    -0x40f8(%rbp),%rax
    9227:	48 8b 40 10          	mov    0x10(%rax),%rax
    922b:	48 8d 8d 10 bf ff ff 	lea    -0x40f0(%rbp),%rcx
    9232:	49 89 c8             	mov    %rcx,%r8
    9235:	89 d1                	mov    %edx,%ecx
    9237:	48 8d 15 1a 2f 00 00 	lea    0x2f1a(%rip),%rdx        # c158 <_ZZ15privateGetStartP12phFuncStructE12__FUNCTION__+0x9f8>
    923e:	be 01 00 00 00       	mov    $0x1,%esi
    9243:	48 89 c7             	mov    %rax,%rdi
    9246:	b8 00 00 00 00       	mov    $0x0,%eax
    924b:	e8 a0 99 ff ff       	callq  2bf0 <_Z16phLogFuncMessageP11phLogStruct11phLogType_tPKcz@plt>
    9250:	c7 85 18 ff ff ff 0e 	movl   $0xe,-0xe8(%rbp)
    9257:	00 00 00 
    925a:	eb 2f                	jmp    928b <_Z14phFuncTaGetSRQP12phFuncStructPiiz+0x3bd>
    925c:	48 8b 85 08 bf ff ff 	mov    -0x40f8(%rbp),%rax
    9263:	48 8b 40 10          	mov    0x10(%rax),%rax
    9267:	48 8d 15 32 2f 00 00 	lea    0x2f32(%rip),%rdx        # c1a0 <_ZZ15privateGetStartP12phFuncStructE12__FUNCTION__+0xa40>
    926e:	be 01 00 00 00       	mov    $0x1,%esi
    9273:	48 89 c7             	mov    %rax,%rdi
    9276:	b8 00 00 00 00       	mov    $0x0,%eax
    927b:	e8 70 99 ff ff       	callq  2bf0 <_Z16phLogFuncMessageP11phLogStruct11phLogType_tPKcz@plt>
    9280:	c7 85 18 ff ff ff 0e 	movl   $0xe,-0xe8(%rbp)
    9287:	00 00 00 
    928a:	90                   	nop
    928b:	eb 6b                	jmp    92f8 <_Z14phFuncTaGetSRQP12phFuncStructPiiz+0x42a>
    928d:	c7 85 18 ff ff ff 0c 	movl   $0xc,-0xe8(%rbp)
    9294:	00 00 00 
    9297:	eb 5f                	jmp    92f8 <_Z14phFuncTaGetSRQP12phFuncStructPiiz+0x42a>
    9299:	48 8b 85 08 bf ff ff 	mov    -0x40f8(%rbp),%rax
    92a0:	48 8b 40 10          	mov    0x10(%rax),%rax
    92a4:	48 8d 15 1d 2f 00 00 	lea    0x2f1d(%rip),%rdx        # c1c8 <_ZZ15privateGetStartP12phFuncStructE12__FUNCTION__+0xa68>
    92ab:	be 02 00 00 00       	mov    $0x2,%esi
    92b0:	48 89 c7             	mov    %rax,%rdi
    92b3:	b8 00 00 00 00       	mov    $0x0,%eax
    92b8:	e8 33 99 ff ff       	callq  2bf0 <_Z16phLogFuncMessageP11phLogStruct11phLogType_tPKcz@plt>
    92bd:	c7 85 18 ff ff ff 0c 	movl   $0xc,-0xe8(%rbp)
    92c4:	00 00 00 
    92c7:	eb 2f                	jmp    92f8 <_Z14phFuncTaGetSRQP12phFuncStructPiiz+0x42a>
    92c9:	48 8b 85 08 bf ff ff 	mov    -0x40f8(%rbp),%rax
    92d0:	48 8b 40 10          	mov    0x10(%rax),%rax
    92d4:	48 8d 15 47 2b 00 00 	lea    0x2b47(%rip),%rdx        # be22 <_ZZ15privateGetStartP12phFuncStructE12__FUNCTION__+0x6c2>
    92db:	be 01 00 00 00       	mov    $0x1,%esi
    92e0:	48 89 c7             	mov    %rax,%rdi
    92e3:	b8 00 00 00 00       	mov    $0x0,%eax
    92e8:	e8 03 99 ff ff       	callq  2bf0 <_Z16phLogFuncMessageP11phLogStruct11phLogType_tPKcz@plt>
    92ed:	c7 85 18 ff ff ff 08 	movl   $0x8,-0xe8(%rbp)
    92f4:	00 00 00 
    92f7:	90                   	nop
    92f8:	8b 85 18 ff ff ff    	mov    -0xe8(%rbp),%eax
    92fe:	c9                   	leaveq 
    92ff:	c3                   	retq   

0000000000009300 <_Z15phFuncTaTestSRQP12phFuncStructPiS1_i>:
    9300:	55                   	push   %rbp
    9301:	48 89 e5             	mov    %rsp,%rbp
    9304:	48 83 ec 40          	sub    $0x40,%rsp
    9308:	48 89 7d d8          	mov    %rdi,-0x28(%rbp)
    930c:	48 89 75 d0          	mov    %rsi,-0x30(%rbp)
    9310:	48 89 55 c8          	mov    %rdx,-0x38(%rbp)
    9314:	89 4d c4             	mov    %ecx,-0x3c(%rbp)
    9317:	c7 45 e8 00 00 00 00 	movl   $0x0,-0x18(%rbp)
    931e:	48 8b 45 d8          	mov    -0x28(%rbp),%rax
    9322:	8b 80 78 40 00 00    	mov    0x4078(%rax),%eax
    9328:	83 f8 04             	cmp    $0x4,%eax
    932b:	75 0a                	jne    9337 <_Z15phFuncTaTestSRQP12phFuncStructPiS1_i+0x37>
    932d:	b8 00 00 00 00       	mov    $0x0,%eax
    9332:	e9 d1 02 00 00       	jmpq   9608 <_Z15phFuncTaTestSRQP12phFuncStructPiS1_i+0x308>
    9337:	48 8b 45 d8          	mov    -0x28(%rbp),%rax
    933b:	48 8b 80 70 40 00 00 	mov    0x4070(%rax),%rax
    9342:	8b 50 08             	mov    0x8(%rax),%edx
    9345:	83 c2 01             	add    $0x1,%edx
    9348:	89 50 08             	mov    %edx,0x8(%rax)
    934b:	48 8b 45 d8          	mov    -0x28(%rbp),%rax
    934f:	48 8b 80 70 40 00 00 	mov    0x4070(%rax),%rax
    9356:	8b 50 0c             	mov    0xc(%rax),%edx
    9359:	48 8b 45 d8          	mov    -0x28(%rbp),%rax
    935d:	48 8b 80 70 40 00 00 	mov    0x4070(%rax),%rax
    9364:	8b 40 08             	mov    0x8(%rax),%eax
    9367:	39 c2                	cmp    %eax,%edx
    9369:	7c 2b                	jl     9396 <_Z15phFuncTaTestSRQP12phFuncStructPiS1_i+0x96>
    936b:	48 8b 45 d8          	mov    -0x28(%rbp),%rax
    936f:	48 8b 40 10          	mov    0x10(%rax),%rax
    9373:	48 8d 15 36 2d 00 00 	lea    0x2d36(%rip),%rdx        # c0b0 <_ZZ15privateGetStartP12phFuncStructE12__FUNCTION__+0x950>
    937a:	be 07 00 00 00       	mov    $0x7,%esi
    937f:	48 89 c7             	mov    %rax,%rdi
    9382:	b8 00 00 00 00       	mov    $0x0,%eax
    9387:	e8 64 98 ff ff       	callq  2bf0 <_Z16phLogFuncMessageP11phLogStruct11phLogType_tPKcz@plt>
    938c:	b8 00 00 00 00       	mov    $0x0,%eax
    9391:	e9 72 02 00 00       	jmpq   9608 <_Z15phFuncTaTestSRQP12phFuncStructPiS1_i+0x308>
    9396:	48 8b 45 d0          	mov    -0x30(%rbp),%rax
    939a:	c7 00 00 00 00 00    	movl   $0x0,(%rax)
    93a0:	48 8b 45 d8          	mov    -0x28(%rbp),%rax
    93a4:	48 8b 50 48          	mov    0x48(%rax),%rdx
    93a8:	48 8b 45 d8          	mov    -0x28(%rbp),%rax
    93ac:	48 8b 40 10          	mov    0x10(%rax),%rax
    93b0:	8b 4d c4             	mov    -0x3c(%rbp),%ecx
    93b3:	41 89 c8             	mov    %ecx,%r8d
    93b6:	48 89 d1             	mov    %rdx,%rcx
    93b9:	48 8d 15 30 2e 00 00 	lea    0x2e30(%rip),%rdx        # c1f0 <_ZZ15privateGetStartP12phFuncStructE12__FUNCTION__+0xa90>
    93c0:	be 06 00 00 00       	mov    $0x6,%esi
    93c5:	48 89 c7             	mov    %rax,%rdi
    93c8:	b8 00 00 00 00       	mov    $0x0,%eax
    93cd:	e8 1e 98 ff ff       	callq  2bf0 <_Z16phLogFuncMessageP11phLogStruct11phLogType_tPKcz@plt>
    93d2:	83 7d c4 00          	cmpl   $0x0,-0x3c(%rbp)
    93d6:	75 0a                	jne    93e2 <_Z15phFuncTaTestSRQP12phFuncStructPiS1_i+0xe2>
    93d8:	48 8b 45 d8          	mov    -0x28(%rbp),%rax
    93dc:	48 8b 40 48          	mov    0x48(%rax),%rax
    93e0:	eb 05                	jmp    93e7 <_Z15phFuncTaTestSRQP12phFuncStructPiS1_i+0xe7>
    93e2:	b8 00 00 00 00       	mov    $0x0,%eax
    93e7:	48 8b 55 d8          	mov    -0x28(%rbp),%rdx
    93eb:	48 8b 7a 20          	mov    0x20(%rdx),%rdi
    93ef:	48 8d 55 ec          	lea    -0x14(%rbp),%rdx
    93f3:	48 8d 75 f0          	lea    -0x10(%rbp),%rsi
    93f7:	48 89 c1             	mov    %rax,%rcx
    93fa:	e8 e1 9b ff ff       	callq  2fe0 <_Z17phComGpibGetEventP11phComStructPP9gpibEventPil@plt>
    93ff:	89 45 fc             	mov    %eax,-0x4(%rbp)
    9402:	8b 45 fc             	mov    -0x4(%rbp),%eax
    9405:	85 c0                	test   %eax,%eax
    9407:	74 0e                	je     9417 <_Z15phFuncTaTestSRQP12phFuncStructPiS1_i+0x117>
    9409:	83 f8 02             	cmp    $0x2,%eax
    940c:	0f 84 2b 01 00 00    	je     953d <_Z15phFuncTaTestSRQP12phFuncStructPiS1_i+0x23d>
    9412:	e9 92 01 00 00       	jmpq   95a9 <_Z15phFuncTaTestSRQP12phFuncStructPiS1_i+0x2a9>
    9417:	8b 4d ec             	mov    -0x14(%rbp),%ecx
    941a:	48 8b 55 f0          	mov    -0x10(%rbp),%rdx
    941e:	48 8b 45 d8          	mov    -0x28(%rbp),%rax
    9422:	48 8b 40 10          	mov    0x10(%rax),%rax
    9426:	41 89 c8             	mov    %ecx,%r8d
    9429:	48 89 d1             	mov    %rdx,%rcx
    942c:	48 8d 15 05 2e 00 00 	lea    0x2e05(%rip),%rdx        # c238 <_ZZ15privateGetStartP12phFuncStructE12__FUNCTION__+0xad8>
    9433:	be 06 00 00 00       	mov    $0x6,%esi
    9438:	48 89 c7             	mov    %rax,%rdi
    943b:	b8 00 00 00 00       	mov    $0x0,%eax
    9440:	e8 ab 97 ff ff       	callq  2bf0 <_Z16phLogFuncMessageP11phLogStruct11phLogType_tPKcz@plt>
    9445:	48 8b 45 f0          	mov    -0x10(%rbp),%rax
    9449:	48 85 c0             	test   %rax,%rax
    944c:	0f 84 aa 00 00 00    	je     94fc <_Z15phFuncTaTestSRQP12phFuncStructPiS1_i+0x1fc>
    9452:	48 8b 45 d8          	mov    -0x28(%rbp),%rax
    9456:	48 8b 80 70 40 00 00 	mov    0x4070(%rax),%rax
    945d:	8b 50 0c             	mov    0xc(%rax),%edx
    9460:	83 c2 01             	add    $0x1,%edx
    9463:	89 50 0c             	mov    %edx,0xc(%rax)
    9466:	48 8b 45 f0          	mov    -0x10(%rbp),%rax
    946a:	8b 00                	mov    (%rax),%eax
    946c:	85 c0                	test   %eax,%eax
    946e:	75 5e                	jne    94ce <_Z15phFuncTaTestSRQP12phFuncStructPiS1_i+0x1ce>
    9470:	48 8b 45 d0          	mov    -0x30(%rbp),%rax
    9474:	c7 00 01 00 00 00    	movl   $0x1,(%rax)
    947a:	48 8b 45 f0          	mov    -0x10(%rbp),%rax
    947e:	0f b6 40 04          	movzbl 0x4(%rax),%eax
    9482:	0f b6 d0             	movzbl %al,%edx
    9485:	48 8b 45 c8          	mov    -0x38(%rbp),%rax
    9489:	89 10                	mov    %edx,(%rax)
    948b:	48 8b 45 c8          	mov    -0x38(%rbp),%rax
    948f:	8b 10                	mov    (%rax),%edx
    9491:	48 8b 45 d8          	mov    -0x28(%rbp),%rax
    9495:	48 8b 40 10          	mov    0x10(%rax),%rax
    9499:	89 d1                	mov    %edx,%ecx
    949b:	48 8d 15 86 2c 00 00 	lea    0x2c86(%rip),%rdx        # c128 <_ZZ15privateGetStartP12phFuncStructE12__FUNCTION__+0x9c8>
    94a2:	be 06 00 00 00       	mov    $0x6,%esi
    94a7:	48 89 c7             	mov    %rax,%rdi
    94aa:	b8 00 00 00 00       	mov    $0x0,%eax
    94af:	e8 3c 97 ff ff       	callq  2bf0 <_Z16phLogFuncMessageP11phLogStruct11phLogType_tPKcz@plt>
    94b4:	48 8b 45 c8          	mov    -0x38(%rbp),%rax
    94b8:	8b 08                	mov    (%rax),%ecx
    94ba:	48 8d 55 e8          	lea    -0x18(%rbp),%rdx
    94be:	48 8b 45 d8          	mov    -0x28(%rbp),%rax
    94c2:	89 ce                	mov    %ecx,%esi
    94c4:	48 89 c7             	mov    %rax,%rdi
    94c7:	e8 04 9b ff ff       	callq  2fd0 <_Z14callSRQHandlerP12phFuncStructiP13phFuncError_t@plt>
    94cc:	eb 29                	jmp    94f7 <_Z15phFuncTaTestSRQP12phFuncStructPiS1_i+0x1f7>
    94ce:	48 8b 45 d8          	mov    -0x28(%rbp),%rax
    94d2:	48 8b 40 10          	mov    0x10(%rax),%rax
    94d6:	48 8d 15 c3 2c 00 00 	lea    0x2cc3(%rip),%rdx        # c1a0 <_ZZ15privateGetStartP12phFuncStructE12__FUNCTION__+0xa40>
    94dd:	be 01 00 00 00       	mov    $0x1,%esi
    94e2:	48 89 c7             	mov    %rax,%rdi
    94e5:	b8 00 00 00 00       	mov    $0x0,%eax
    94ea:	e8 01 97 ff ff       	callq  2bf0 <_Z16phLogFuncMessageP11phLogStruct11phLogType_tPKcz@plt>
    94ef:	c7 45 e8 0e 00 00 00 	movl   $0xe,-0x18(%rbp)
    94f6:	90                   	nop
    94f7:	e9 09 01 00 00       	jmpq   9605 <_Z15phFuncTaTestSRQP12phFuncStructPiS1_i+0x305>
    94fc:	48 8b 45 d8          	mov    -0x28(%rbp),%rax
    9500:	48 8b 40 10          	mov    0x10(%rax),%rax
    9504:	48 8d 15 7d 2d 00 00 	lea    0x2d7d(%rip),%rdx        # c288 <_ZZ15privateGetStartP12phFuncStructE12__FUNCTION__+0xb28>
    950b:	be 02 00 00 00       	mov    $0x2,%esi
    9510:	48 89 c7             	mov    %rax,%rdi
    9513:	b8 00 00 00 00       	mov    $0x0,%eax
    9518:	e8 d3 96 ff ff       	callq  2bf0 <_Z16phLogFuncMessageP11phLogStruct11phLogType_tPKcz@plt>
    951d:	48 8b 45 d8          	mov    -0x28(%rbp),%rax
    9521:	48 8b 80 70 40 00 00 	mov    0x4070(%rax),%rax
    9528:	8b 50 0c             	mov    0xc(%rax),%edx
    952b:	83 c2 01             	add    $0x1,%edx
    952e:	89 50 0c             	mov    %edx,0xc(%rax)
    9531:	c7 45 e8 00 00 00 00 	movl   $0x0,-0x18(%rbp)
    9538:	e9 c8 00 00 00       	jmpq   9605 <_Z15phFuncTaTestSRQP12phFuncStructPiS1_i+0x305>
    953d:	8b 4d ec             	mov    -0x14(%rbp),%ecx
    9540:	48 8b 55 f0          	mov    -0x10(%rbp),%rdx
    9544:	48 8b 45 d8          	mov    -0x28(%rbp),%rax
    9548:	48 8b 40 10          	mov    0x10(%rax),%rax
    954c:	41 89 c8             	mov    %ecx,%r8d
    954f:	48 89 d1             	mov    %rdx,%rcx
    9552:	48 8d 15 57 2d 00 00 	lea    0x2d57(%rip),%rdx        # c2b0 <_ZZ15privateGetStartP12phFuncStructE12__FUNCTION__+0xb50>
    9559:	be 06 00 00 00       	mov    $0x6,%esi
    955e:	48 89 c7             	mov    %rax,%rdi
    9561:	b8 00 00 00 00       	mov    $0x0,%eax
    9566:	e8 85 96 ff ff       	callq  2bf0 <_Z16phLogFuncMessageP11phLogStruct11phLogType_tPKcz@plt>
    956b:	48 8b 45 d8          	mov    -0x28(%rbp),%rax
    956f:	48 8b 40 10          	mov    0x10(%rax),%rax
    9573:	48 8d 15 0e 2d 00 00 	lea    0x2d0e(%rip),%rdx        # c288 <_ZZ15privateGetStartP12phFuncStructE12__FUNCTION__+0xb28>
    957a:	be 02 00 00 00       	mov    $0x2,%esi
    957f:	48 89 c7             	mov    %rax,%rdi
    9582:	b8 00 00 00 00       	mov    $0x0,%eax
    9587:	e8 64 96 ff ff       	callq  2bf0 <_Z16phLogFuncMessageP11phLogStruct11phLogType_tPKcz@plt>
    958c:	48 8b 45 d8          	mov    -0x28(%rbp),%rax
    9590:	48 8b 80 70 40 00 00 	mov    0x4070(%rax),%rax
    9597:	8b 50 0c             	mov    0xc(%rax),%edx
    959a:	83 c2 01             	add    $0x1,%edx
    959d:	89 50 0c             	mov    %edx,0xc(%rax)
    95a0:	c7 45 e8 00 00 00 00 	movl   $0x0,-0x18(%rbp)
    95a7:	eb 5c                	jmp    9605 <_Z15phFuncTaTestSRQP12phFuncStructPiS1_i+0x305>
    95a9:	8b 75 ec             	mov    -0x14(%rbp),%esi
    95ac:	48 8b 4d f0          	mov    -0x10(%rbp),%rcx
    95b0:	8b 55 fc             	mov    -0x4(%rbp),%edx
    95b3:	48 8b 45 d8          	mov    -0x28(%rbp),%rax
    95b7:	48 8b 40 10          	mov    0x10(%rax),%rax
    95bb:	41 89 f1             	mov    %esi,%r9d
    95be:	49 89 c8             	mov    %rcx,%r8
    95c1:	89 d1                	mov    %edx,%ecx
    95c3:	48 8d 15 36 2d 00 00 	lea    0x2d36(%rip),%rdx        # c300 <_ZZ15privateGetStartP12phFuncStructE12__FUNCTION__+0xba0>
    95ca:	be 06 00 00 00       	mov    $0x6,%esi
    95cf:	48 89 c7             	mov    %rax,%rdi
    95d2:	b8 00 00 00 00       	mov    $0x0,%eax
    95d7:	e8 14 96 ff ff       	callq  2bf0 <_Z16phLogFuncMessageP11phLogStruct11phLogType_tPKcz@plt>
    95dc:	48 8b 45 d8          	mov    -0x28(%rbp),%rax
    95e0:	48 8b 40 10          	mov    0x10(%rax),%rax
    95e4:	48 8d 15 37 28 00 00 	lea    0x2837(%rip),%rdx        # be22 <_ZZ15privateGetStartP12phFuncStructE12__FUNCTION__+0x6c2>
    95eb:	be 01 00 00 00       	mov    $0x1,%esi
    95f0:	48 89 c7             	mov    %rax,%rdi
    95f3:	b8 00 00 00 00       	mov    $0x0,%eax
    95f8:	e8 f3 95 ff ff       	callq  2bf0 <_Z16phLogFuncMessageP11phLogStruct11phLogType_tPKcz@plt>
    95fd:	c7 45 e8 08 00 00 00 	movl   $0x8,-0x18(%rbp)
    9604:	90                   	nop
    9605:	8b 45 e8             	mov    -0x18(%rbp),%eax
    9608:	c9                   	leaveq 
    9609:	c3                   	retq   

Disassembly of section .fini:

000000000000960c <_fini>:
    960c:	48 83 ec 08          	sub    $0x8,%rsp
    9610:	48 83 c4 08          	add    $0x8,%rsp
    9614:	c3                   	retq   
